	.text
	.file	"mas_bkops_core.c"
	.file	1 "/mnt/disk/jenkins/ci/workspace/chipset_pipeline_release/opensource/component_code/vendor/huawei/extra/build/build_script/kirin_kernel_release/kernel/include/asm-generic/int-ll64.h"
	.file	2 "/mnt/disk/jenkins/ci/workspace/chipset_pipeline_release/opensource/component_code/vendor/huawei/extra/build/build_script/kirin_kernel_release/kernel/arch/arm64/include/asm/spinlock_types.h"
	.file	3 "/mnt/disk/jenkins/ci/workspace/chipset_pipeline_release/opensource/component_code/vendor/huawei/extra/build/build_script/kirin_kernel_release/kernel/include/linux/spinlock_types.h"
	.file	4 "/mnt/disk/jenkins/ci/workspace/chipset_pipeline_release/opensource/component_code/vendor/huawei/extra/build/build_script/kirin_kernel_release/kernel/include/linux/ratelimit.h"
	.file	5 "/mnt/disk/jenkins/ci/workspace/chipset_pipeline_release/opensource/component_code/vendor/huawei/extra/build/build_script/kirin_kernel_release/kernel/block/mas_bkops_core.c"
	.file	6 "/mnt/disk/jenkins/ci/workspace/chipset_pipeline_release/opensource/component_code/vendor/huawei/extra/build/build_script/kirin_kernel_release/kernel/include/linux/types.h"
	.file	7 "/mnt/disk/jenkins/ci/workspace/chipset_pipeline_release/opensource/component_code/vendor/huawei/extra/build/build_script/kirin_kernel_release/kernel/include/asm-generic/atomic-long.h"
	.file	8 "/mnt/disk/jenkins/ci/workspace/chipset_pipeline_release/opensource/component_code/vendor/huawei/extra/build/build_script/kirin_kernel_release/kernel/include/linux/mutex.h"
	.file	9 "/mnt/disk/jenkins/ci/workspace/chipset_pipeline_release/opensource/component_code/vendor/huawei/extra/build/build_script/kirin_kernel_release/kernel/include/linux/osq_lock.h"
	.file	10 "/mnt/disk/jenkins/ci/workspace/chipset_pipeline_release/opensource/component_code/vendor/huawei/extra/build/build_script/kirin_kernel_release/kernel/arch/arm64/include/asm/thread_info.h"
	.file	11 "/mnt/disk/jenkins/ci/workspace/chipset_pipeline_release/opensource/component_code/vendor/huawei/extra/build/build_script/kirin_kernel_release/kernel/include/linux/sched.h"
	.file	12 "/mnt/disk/jenkins/ci/workspace/chipset_pipeline_release/opensource/component_code/vendor/huawei/extra/build/build_script/kirin_kernel_release/kernel/include/uapi/asm-generic/posix_types.h"
	.file	13 "/mnt/disk/jenkins/ci/workspace/chipset_pipeline_release/opensource/component_code/vendor/huawei/extra/build/build_script/kirin_kernel_release/kernel/include/linux/llist.h"
	.file	14 "/mnt/disk/jenkins/ci/workspace/chipset_pipeline_release/opensource/component_code/vendor/huawei/extra/build/build_script/kirin_kernel_release/kernel/include/linux/rbtree.h"
	.file	15 "/mnt/disk/jenkins/ci/workspace/chipset_pipeline_release/opensource/component_code/vendor/huawei/extra/build/build_script/kirin_kernel_release/kernel/include/linux/timerqueue.h"
	.file	16 "/mnt/disk/jenkins/ci/workspace/chipset_pipeline_release/opensource/component_code/vendor/huawei/extra/build/build_script/kirin_kernel_release/kernel/include/linux/ktime.h"
	.file	17 "/mnt/disk/jenkins/ci/workspace/chipset_pipeline_release/opensource/component_code/vendor/huawei/extra/build/build_script/kirin_kernel_release/kernel/include/linux/hrtimer.h"
	.file	18 "/mnt/disk/jenkins/ci/workspace/chipset_pipeline_release/opensource/component_code/vendor/huawei/extra/build/build_script/kirin_kernel_release/kernel/include/linux/seqlock.h"
	.file	19 "/mnt/disk/jenkins/ci/workspace/chipset_pipeline_release/opensource/component_code/vendor/huawei/extra/build/build_script/kirin_kernel_release/kernel/include/linux/cpumask.h"
	.file	20 "/mnt/disk/jenkins/ci/workspace/chipset_pipeline_release/opensource/component_code/vendor/huawei/extra/build/build_script/kirin_kernel_release/kernel/include/linux/plist.h"
	.file	21 "/mnt/disk/jenkins/ci/workspace/chipset_pipeline_release/opensource/component_code/vendor/huawei/extra/build/build_script/kirin_kernel_release/kernel/include/linux/mm_types.h"
	.file	22 "/mnt/disk/jenkins/ci/workspace/chipset_pipeline_release/opensource/component_code/vendor/huawei/extra/build/build_script/kirin_kernel_release/kernel/arch/arm64/include/asm/pgtable-types.h"
	.file	23 "/mnt/disk/jenkins/ci/workspace/chipset_pipeline_release/opensource/component_code/vendor/huawei/extra/build/build_script/kirin_kernel_release/kernel/include/linux/mm.h"
	.file	24 "/mnt/disk/jenkins/ci/workspace/chipset_pipeline_release/opensource/component_code/vendor/huawei/extra/build/build_script/kirin_kernel_release/kernel/include/asm-generic/pgtable-nop4d-hack.h"
	.file	25 "/mnt/disk/jenkins/ci/workspace/chipset_pipeline_release/opensource/component_code/vendor/huawei/extra/build/build_script/kirin_kernel_release/kernel/include/linux/fs.h"
	.file	26 "/mnt/disk/jenkins/ci/workspace/chipset_pipeline_release/opensource/component_code/vendor/huawei/extra/build/build_script/kirin_kernel_release/kernel/include/linux/uidgid.h"
	.file	27 "/mnt/disk/jenkins/ci/workspace/chipset_pipeline_release/opensource/component_code/vendor/huawei/extra/build/build_script/kirin_kernel_release/kernel/include/linux/dcache.h"
	.file	28 "/mnt/disk/jenkins/ci/workspace/chipset_pipeline_release/opensource/component_code/vendor/huawei/extra/build/build_script/kirin_kernel_release/kernel/include/linux/list_bl.h"
	.file	29 "/mnt/disk/jenkins/ci/workspace/chipset_pipeline_release/opensource/component_code/vendor/huawei/extra/build/build_script/kirin_kernel_release/kernel/include/linux/lockref.h"
	.file	30 "/mnt/disk/jenkins/ci/workspace/chipset_pipeline_release/opensource/component_code/vendor/huawei/extra/build/build_script/kirin_kernel_release/kernel/include/linux/path.h"
	.file	31 "/mnt/disk/jenkins/ci/workspace/chipset_pipeline_release/opensource/component_code/vendor/huawei/extra/build/build_script/kirin_kernel_release/kernel/include/uapi/asm-generic/int-ll64.h"
	.file	32 "/mnt/disk/jenkins/ci/workspace/chipset_pipeline_release/opensource/component_code/vendor/huawei/extra/build/build_script/kirin_kernel_release/kernel/include/linux/module.h"
	.file	33 "/mnt/disk/jenkins/ci/workspace/chipset_pipeline_release/opensource/component_code/vendor/huawei/extra/build/build_script/kirin_kernel_release/kernel/include/linux/kobject.h"
	.file	34 "/mnt/disk/jenkins/ci/workspace/chipset_pipeline_release/opensource/component_code/vendor/huawei/extra/build/build_script/kirin_kernel_release/kernel/include/linux/sysfs.h"
	.file	35 "/mnt/disk/jenkins/ci/workspace/chipset_pipeline_release/opensource/component_code/vendor/huawei/extra/build/build_script/kirin_kernel_release/kernel/include/linux/kobject_ns.h"
	.file	36 "/mnt/disk/jenkins/ci/workspace/chipset_pipeline_release/opensource/component_code/vendor/huawei/extra/build/build_script/kirin_kernel_release/kernel/include/linux/kernfs.h"
	.file	37 "/mnt/disk/jenkins/ci/workspace/chipset_pipeline_release/opensource/component_code/vendor/huawei/extra/build/build_script/kirin_kernel_release/kernel/include/linux/radix-tree.h"
	.file	38 "/mnt/disk/jenkins/ci/workspace/chipset_pipeline_release/opensource/component_code/vendor/huawei/extra/build/build_script/kirin_kernel_release/kernel/include/linux/idr.h"
	.file	39 "/mnt/disk/jenkins/ci/workspace/chipset_pipeline_release/opensource/component_code/vendor/huawei/extra/build/build_script/kirin_kernel_release/kernel/include/linux/seq_file.h"
	.file	40 "/mnt/disk/jenkins/ci/workspace/chipset_pipeline_release/opensource/component_code/vendor/huawei/extra/build/build_script/kirin_kernel_release/kernel/include/linux/wait.h"
	.file	41 "/mnt/disk/jenkins/ci/workspace/chipset_pipeline_release/opensource/component_code/vendor/huawei/extra/build/build_script/kirin_kernel_release/kernel/include/linux/nfs_fs_i.h"
	.file	42 "/mnt/disk/jenkins/ci/workspace/chipset_pipeline_release/opensource/component_code/vendor/huawei/extra/build/build_script/kirin_kernel_release/kernel/include/linux/rwlock_types.h"
	.file	43 "/mnt/disk/jenkins/ci/workspace/chipset_pipeline_release/opensource/component_code/vendor/huawei/extra/build/build_script/kirin_kernel_release/kernel/include/linux/pid.h"
	.file	44 "/mnt/disk/jenkins/ci/workspace/chipset_pipeline_release/opensource/component_code/vendor/huawei/extra/build/build_script/kirin_kernel_release/kernel/include/linux/cred.h"
	.file	45 "/mnt/disk/jenkins/ci/workspace/chipset_pipeline_release/opensource/component_code/vendor/huawei/extra/build/build_script/kirin_kernel_release/kernel/include/linux/capability.h"
	.file	46 "/mnt/disk/jenkins/ci/workspace/chipset_pipeline_release/opensource/component_code/vendor/huawei/extra/build/build_script/kirin_kernel_release/kernel/include/linux/refcount.h"
	.file	47 "/mnt/disk/jenkins/ci/workspace/chipset_pipeline_release/opensource/component_code/vendor/huawei/extra/build/build_script/kirin_kernel_release/kernel/include/linux/key.h"
	.file	48 "/mnt/disk/jenkins/ci/workspace/chipset_pipeline_release/opensource/component_code/vendor/huawei/extra/build/build_script/kirin_kernel_release/kernel/include/linux/rwsem.h"
	.file	49 "/mnt/disk/jenkins/ci/workspace/chipset_pipeline_release/opensource/component_code/vendor/huawei/extra/build/build_script/kirin_kernel_release/kernel/include/linux/assoc_array.h"
	.file	50 "/mnt/disk/jenkins/ci/workspace/chipset_pipeline_release/opensource/component_code/vendor/huawei/extra/build/build_script/kirin_kernel_release/kernel/include/linux/sched/user.h"
	.file	51 "/mnt/disk/jenkins/ci/workspace/chipset_pipeline_release/opensource/component_code/vendor/huawei/extra/build/build_script/kirin_kernel_release/kernel/include/linux/user_namespace.h"
	.file	52 "/mnt/disk/jenkins/ci/workspace/chipset_pipeline_release/opensource/component_code/vendor/huawei/extra/build/build_script/kirin_kernel_release/kernel/include/linux/ns_common.h"
	.file	53 "/mnt/disk/jenkins/ci/workspace/chipset_pipeline_release/opensource/component_code/vendor/huawei/extra/build/build_script/kirin_kernel_release/kernel/include/linux/workqueue.h"
	.file	54 "/mnt/disk/jenkins/ci/workspace/chipset_pipeline_release/opensource/component_code/vendor/huawei/extra/build/build_script/kirin_kernel_release/kernel/include/linux/sysctl.h"
	.file	55 "/mnt/disk/jenkins/ci/workspace/chipset_pipeline_release/opensource/component_code/vendor/huawei/extra/build/build_script/kirin_kernel_release/kernel/include/linux/completion.h"
	.file	56 "/mnt/disk/jenkins/ci/workspace/chipset_pipeline_release/opensource/component_code/vendor/huawei/extra/build/build_script/kirin_kernel_release/kernel/include/linux/errseq.h"
	.file	57 "/mnt/disk/jenkins/ci/workspace/chipset_pipeline_release/opensource/component_code/vendor/huawei/extra/build/build_script/kirin_kernel_release/kernel/include/linux/kref.h"
	.file	58 "/mnt/disk/jenkins/ci/workspace/chipset_pipeline_release/opensource/component_code/vendor/huawei/extra/build/build_script/kirin_kernel_release/kernel/include/linux/export.h"
	.file	59 "/mnt/disk/jenkins/ci/workspace/chipset_pipeline_release/opensource/component_code/vendor/huawei/extra/build/build_script/kirin_kernel_release/kernel/include/linux/cfi.h"
	.file	60 "/mnt/disk/jenkins/ci/workspace/chipset_pipeline_release/opensource/component_code/vendor/huawei/extra/build/build_script/kirin_kernel_release/kernel/include/linux/moduleparam.h"
	.file	61 "/mnt/disk/jenkins/ci/workspace/chipset_pipeline_release/opensource/component_code/vendor/huawei/extra/build/build_script/kirin_kernel_release/kernel/arch/arm64/include/asm/extable.h"
	.file	62 "/mnt/disk/jenkins/ci/workspace/chipset_pipeline_release/opensource/component_code/vendor/huawei/extra/build/build_script/kirin_kernel_release/kernel/include/linux/rbtree_latch.h"
	.file	63 "/mnt/disk/jenkins/ci/workspace/chipset_pipeline_release/opensource/component_code/vendor/huawei/extra/build/build_script/kirin_kernel_release/kernel/include/uapi/linux/elf.h"
	.file	64 "/mnt/disk/jenkins/ci/workspace/chipset_pipeline_release/opensource/component_code/vendor/huawei/extra/build/build_script/kirin_kernel_release/kernel/arch/arm64/include/asm/module.h"
	.file	65 "/mnt/disk/jenkins/ci/workspace/chipset_pipeline_release/opensource/component_code/vendor/huawei/extra/build/build_script/kirin_kernel_release/kernel/include/uapi/linux/types.h"
	.file	66 "/mnt/disk/jenkins/ci/workspace/chipset_pipeline_release/opensource/component_code/vendor/huawei/extra/build/build_script/kirin_kernel_release/kernel/include/asm-generic/bug.h"
	.file	67 "/mnt/disk/jenkins/ci/workspace/chipset_pipeline_release/opensource/component_code/vendor/huawei/extra/build/build_script/kirin_kernel_release/kernel/include/linux/tracepoint-defs.h"
	.file	68 "/mnt/disk/jenkins/ci/workspace/chipset_pipeline_release/opensource/component_code/vendor/huawei/extra/build/build_script/kirin_kernel_release/kernel/include/linux/jump_label.h"
	.file	69 "/mnt/disk/jenkins/ci/workspace/chipset_pipeline_release/opensource/component_code/vendor/huawei/extra/build/build_script/kirin_kernel_release/kernel/include/linux/lockdep.h"
	.file	70 "/mnt/disk/jenkins/ci/workspace/chipset_pipeline_release/opensource/component_code/vendor/huawei/extra/build/build_script/kirin_kernel_release/kernel/include/linux/writeback.h"
	.file	71 "/mnt/disk/jenkins/ci/workspace/chipset_pipeline_release/opensource/component_code/vendor/huawei/extra/build/build_script/kirin_kernel_release/kernel/include/linux/backing-dev-defs.h"
	.file	72 "/mnt/disk/jenkins/ci/workspace/chipset_pipeline_release/opensource/component_code/vendor/huawei/extra/build/build_script/kirin_kernel_release/kernel/include/linux/device.h"
	.file	73 "/mnt/disk/jenkins/ci/workspace/chipset_pipeline_release/opensource/component_code/vendor/huawei/extra/build/build_script/kirin_kernel_release/kernel/include/linux/pm.h"
	.file	74 "/mnt/disk/jenkins/ci/workspace/chipset_pipeline_release/opensource/component_code/vendor/huawei/extra/build/build_script/kirin_kernel_release/kernel/include/linux/pm_wakeup.h"
	.file	75 "/mnt/disk/jenkins/ci/workspace/chipset_pipeline_release/opensource/component_code/vendor/huawei/extra/build/build_script/kirin_kernel_release/kernel/include/linux/timer.h"
	.file	76 "/mnt/disk/jenkins/ci/workspace/chipset_pipeline_release/opensource/component_code/vendor/huawei/extra/build/build_script/kirin_kernel_release/kernel/include/linux/pinctrl/devinfo.h"
	.file	77 "/mnt/disk/jenkins/ci/workspace/chipset_pipeline_release/opensource/component_code/vendor/huawei/extra/build/build_script/kirin_kernel_release/kernel/arch/arm64/include/asm/device.h"
	.file	78 "/mnt/disk/jenkins/ci/workspace/chipset_pipeline_release/opensource/component_code/vendor/huawei/extra/build/build_script/kirin_kernel_release/kernel/include/linux/klist.h"
	.file	79 "/mnt/disk/jenkins/ci/workspace/chipset_pipeline_release/opensource/component_code/vendor/huawei/extra/build/build_script/kirin_kernel_release/kernel/include/linux/blkdev.h"
	.file	80 "/mnt/disk/jenkins/ci/workspace/chipset_pipeline_release/opensource/component_code/vendor/huawei/extra/build/build_script/kirin_kernel_release/kernel/include/linux/smp.h"
	.file	81 "/mnt/disk/jenkins/ci/workspace/chipset_pipeline_release/opensource/component_code/vendor/huawei/extra/build/build_script/kirin_kernel_release/kernel/block/blk-mq.h"
	.file	82 "/mnt/disk/jenkins/ci/workspace/chipset_pipeline_release/opensource/component_code/vendor/huawei/extra/build/build_script/kirin_kernel_release/kernel/include/linux/blk_types.h"
	.file	83 "/mnt/disk/jenkins/ci/workspace/chipset_pipeline_release/opensource/component_code/vendor/huawei/extra/build/build_script/kirin_kernel_release/kernel/include/linux/genhd.h"
	.file	84 "/mnt/disk/jenkins/ci/workspace/chipset_pipeline_release/opensource/component_code/vendor/huawei/extra/build/build_script/kirin_kernel_release/kernel/include/linux/percpu-refcount.h"
	.file	85 "/mnt/disk/jenkins/ci/workspace/chipset_pipeline_release/opensource/component_code/vendor/huawei/extra/build/build_script/kirin_kernel_release/kernel/include/linux/bvec.h"
	.file	86 "/mnt/disk/jenkins/ci/workspace/chipset_pipeline_release/opensource/component_code/vendor/huawei/extra/build/build_script/kirin_kernel_release/kernel/include/uapi/linux/time.h"
	.file	87 "/mnt/disk/jenkins/ci/workspace/chipset_pipeline_release/opensource/component_code/vendor/huawei/extra/build/build_script/kirin_kernel_release/kernel/include/linux/iocontext.h"
	.file	88 "/mnt/disk/jenkins/ci/workspace/chipset_pipeline_release/opensource/component_code/vendor/huawei/extra/build/build_script/kirin_kernel_release/kernel/include/linux/cgroup-defs.h"
	.file	89 "/mnt/disk/jenkins/ci/workspace/chipset_pipeline_release/opensource/component_code/vendor/huawei/extra/build/build_script/kirin_kernel_release/kernel/include/linux/psi_types.h"
	.file	90 "/mnt/disk/jenkins/ci/workspace/chipset_pipeline_release/opensource/component_code/vendor/huawei/extra/build/build_script/kirin_kernel_release/kernel/include/linux/bpf-cgroup.h"
	.file	91 "/mnt/disk/jenkins/ci/workspace/chipset_pipeline_release/opensource/component_code/vendor/huawei/extra/build/build_script/kirin_kernel_release/kernel/include/linux/bio.h"
	.file	92 "/mnt/disk/jenkins/ci/workspace/chipset_pipeline_release/opensource/component_code/vendor/huawei/extra/build/build_script/kirin_kernel_release/kernel/include/linux/mempool.h"
	.file	93 "/mnt/disk/jenkins/ci/workspace/chipset_pipeline_release/opensource/component_code/vendor/huawei/extra/build/build_script/kirin_kernel_release/kernel/include/linux/elevator.h"
	.file	94 "/mnt/disk/jenkins/ci/workspace/chipset_pipeline_release/opensource/component_code/vendor/huawei/extra/build/build_script/kirin_kernel_release/kernel/include/linux/blk-mq.h"
	.file	95 "/mnt/disk/jenkins/ci/workspace/chipset_pipeline_release/opensource/component_code/vendor/huawei/extra/build/build_script/kirin_kernel_release/kernel/block/blk.h"
	.file	96 "/mnt/disk/jenkins/ci/workspace/chipset_pipeline_release/opensource/component_code/vendor/huawei/extra/build/build_script/kirin_kernel_release/kernel/include/linux/sbitmap.h"
	.file	97 "/mnt/disk/jenkins/ci/workspace/chipset_pipeline_release/opensource/component_code/vendor/huawei/extra/build/build_script/kirin_kernel_release/kernel/block/blk-mq-tag.h"
	.file	98 "/mnt/disk/jenkins/ci/workspace/chipset_pipeline_release/opensource/component_code/vendor/huawei/extra/build/build_script/kirin_kernel_release/kernel/include/linux/notifier.h"
	.file	99 "/mnt/disk/jenkins/ci/workspace/chipset_pipeline_release/opensource/component_code/vendor/huawei/extra/build/build_script/kirin_kernel_release/kernel/block/mas_blk.h"
	.file	100 "/mnt/disk/jenkins/ci/workspace/chipset_pipeline_release/opensource/component_code/vendor/huawei/extra/build/build_script/kirin_kernel_release/kernel/include/linux/srcutree.h"
	.file	101 "/mnt/disk/jenkins/ci/workspace/chipset_pipeline_release/opensource/component_code/vendor/huawei/extra/build/build_script/kirin_kernel_release/kernel/include/linux/rcu_segcblist.h"
	.file	102 "/mnt/disk/jenkins/ci/workspace/chipset_pipeline_release/opensource/component_code/vendor/huawei/extra/build/build_script/kirin_kernel_release/kernel/block/blk-stat.h"
	.file	103 "/mnt/disk/jenkins/ci/workspace/chipset_pipeline_release/opensource/component_code/vendor/huawei/extra/build/build_script/kirin_kernel_release/kernel/include/linux/bsg.h"
	.file	104 "/mnt/disk/jenkins/ci/workspace/chipset_pipeline_release/opensource/component_code/vendor/huawei/extra/build/build_script/kirin_kernel_release/kernel/include/linux/percpu_counter.h"
	.file	105 "/mnt/disk/jenkins/ci/workspace/chipset_pipeline_release/opensource/component_code/vendor/huawei/extra/build/build_script/kirin_kernel_release/kernel/include/linux/flex_proportions.h"
	.file	106 "/mnt/disk/jenkins/ci/workspace/chipset_pipeline_release/opensource/component_code/vendor/huawei/extra/build/build_script/kirin_kernel_release/kernel/include/linux/statfs.h"
	.file	107 "/mnt/disk/jenkins/ci/workspace/chipset_pipeline_release/opensource/component_code/vendor/huawei/extra/build/build_script/kirin_kernel_release/kernel/include/linux/quota.h"
	.file	108 "/mnt/disk/jenkins/ci/workspace/chipset_pipeline_release/opensource/component_code/vendor/huawei/extra/build/build_script/kirin_kernel_release/kernel/include/linux/projid.h"
	.file	109 "/mnt/disk/jenkins/ci/workspace/chipset_pipeline_release/opensource/component_code/vendor/huawei/extra/build/build_script/kirin_kernel_release/kernel/include/linux/time64.h"
	.file	110 "/mnt/disk/jenkins/ci/workspace/chipset_pipeline_release/opensource/component_code/vendor/huawei/extra/build/build_script/kirin_kernel_release/kernel/include/linux/shrinker.h"
	.file	111 "/mnt/disk/jenkins/ci/workspace/chipset_pipeline_release/opensource/component_code/vendor/huawei/extra/build/build_script/kirin_kernel_release/kernel/include/linux/memcontrol.h"
	.file	112 "/mnt/disk/jenkins/ci/workspace/chipset_pipeline_release/opensource/component_code/vendor/huawei/extra/build/build_script/kirin_kernel_release/kernel/include/linux/page_counter.h"
	.file	113 "/mnt/disk/jenkins/ci/workspace/chipset_pipeline_release/opensource/component_code/vendor/huawei/extra/build/build_script/kirin_kernel_release/kernel/include/linux/vmpressure.h"
	.file	114 "/mnt/disk/jenkins/ci/workspace/chipset_pipeline_release/opensource/component_code/vendor/huawei/extra/build/build_script/kirin_kernel_release/kernel/include/linux/mmzone.h"
	.file	115 "/mnt/disk/jenkins/ci/workspace/chipset_pipeline_release/opensource/component_code/vendor/huawei/extra/build/build_script/kirin_kernel_release/kernel/include/linux/rcu_sync.h"
	.file	116 "/mnt/disk/jenkins/ci/workspace/chipset_pipeline_release/opensource/component_code/vendor/huawei/extra/build/build_script/kirin_kernel_release/kernel/include/linux/percpu-rwsem.h"
	.file	117 "/mnt/disk/jenkins/ci/workspace/chipset_pipeline_release/opensource/component_code/vendor/huawei/extra/build/build_script/kirin_kernel_release/kernel/include/linux/rcuwait.h"
	.file	118 "/mnt/disk/jenkins/ci/workspace/chipset_pipeline_release/opensource/component_code/vendor/huawei/extra/build/build_script/kirin_kernel_release/kernel/include/linux/uuid.h"
	.file	119 "/mnt/disk/jenkins/ci/workspace/chipset_pipeline_release/opensource/component_code/vendor/huawei/extra/build/build_script/kirin_kernel_release/kernel/include/linux/list_lru.h"
	.file	120 "/mnt/disk/jenkins/ci/workspace/chipset_pipeline_release/opensource/component_code/vendor/huawei/extra/build/build_script/kirin_kernel_release/kernel/include/linux/delayed_call.h"
	.file	121 "/mnt/disk/jenkins/ci/workspace/chipset_pipeline_release/opensource/component_code/vendor/huawei/extra/build/build_script/kirin_kernel_release/kernel/include/linux/stat.h"
	.file	122 "/mnt/disk/jenkins/ci/workspace/chipset_pipeline_release/opensource/component_code/vendor/huawei/extra/build/build_script/kirin_kernel_release/kernel/include/uapi/linux/fiemap.h"
	.file	123 "/mnt/disk/jenkins/ci/workspace/chipset_pipeline_release/opensource/component_code/vendor/huawei/extra/build/build_script/kirin_kernel_release/kernel/include/linux/migrate_mode.h"
	.file	124 "/mnt/disk/jenkins/ci/workspace/chipset_pipeline_release/opensource/component_code/vendor/huawei/extra/build/build_script/kirin_kernel_release/kernel/include/linux/swap.h"
	.file	125 "/mnt/disk/jenkins/ci/workspace/chipset_pipeline_release/opensource/component_code/vendor/huawei/extra/build/build_script/kirin_kernel_release/kernel/include/linux/memremap.h"
	.file	126 "/mnt/disk/jenkins/ci/workspace/chipset_pipeline_release/opensource/component_code/vendor/huawei/extra/build/build_script/kirin_kernel_release/kernel/include/linux/ioport.h"
	.file	127 "/mnt/disk/jenkins/ci/workspace/chipset_pipeline_release/opensource/component_code/vendor/huawei/extra/build/build_script/kirin_kernel_release/kernel/arch/arm64/include/asm/page.h"
	.file	128 "/mnt/disk/jenkins/ci/workspace/chipset_pipeline_release/opensource/component_code/vendor/huawei/extra/build/build_script/kirin_kernel_release/kernel/include/linux/mm_types_task.h"
	.file	129 "/mnt/disk/jenkins/ci/workspace/chipset_pipeline_release/opensource/component_code/vendor/huawei/extra/build/build_script/kirin_kernel_release/kernel/arch/arm64/include/asm/mmu.h"
	.file	130 "/mnt/disk/jenkins/ci/workspace/chipset_pipeline_release/opensource/component_code/vendor/huawei/extra/build/build_script/kirin_kernel_release/kernel/include/linux/uprobes.h"
	.file	131 "/mnt/disk/jenkins/ci/workspace/chipset_pipeline_release/opensource/component_code/vendor/huawei/extra/build/build_script/kirin_kernel_release/kernel/include/linux/xreclaimer_types.h"
	.file	132 "/mnt/disk/jenkins/ci/workspace/chipset_pipeline_release/opensource/component_code/vendor/huawei/extra/build/build_script/kirin_kernel_release/kernel/include/linux/restart_block.h"
	.file	133 "/mnt/disk/jenkins/ci/workspace/chipset_pipeline_release/opensource/component_code/vendor/huawei/extra/build/build_script/kirin_kernel_release/kernel/arch/arm64/include/asm/compat.h"
	.file	134 "/mnt/disk/jenkins/ci/workspace/chipset_pipeline_release/opensource/component_code/vendor/huawei/extra/build/build_script/kirin_kernel_release/kernel/include/linux/nsproxy.h"
	.file	135 "/mnt/disk/jenkins/ci/workspace/chipset_pipeline_release/opensource/component_code/vendor/huawei/extra/build/build_script/kirin_kernel_release/kernel/include/linux/cgroup.h"
	.file	136 "/mnt/disk/jenkins/ci/workspace/chipset_pipeline_release/opensource/component_code/vendor/huawei/extra/build/build_script/kirin_kernel_release/kernel/include/uapi/asm-generic/signal.h"
	.file	137 "/mnt/disk/jenkins/ci/workspace/chipset_pipeline_release/opensource/component_code/vendor/huawei/extra/build/build_script/kirin_kernel_release/kernel/include/linux/signal_types.h"
	.file	138 "/mnt/disk/jenkins/ci/workspace/chipset_pipeline_release/opensource/component_code/vendor/huawei/extra/build/build_script/kirin_kernel_release/kernel/include/linux/seccomp.h"
	.file	139 "/mnt/disk/jenkins/ci/workspace/chipset_pipeline_release/opensource/component_code/vendor/huawei/extra/build/build_script/kirin_kernel_release/kernel/include/uapi/asm-generic/siginfo.h"
	.file	140 "/mnt/disk/jenkins/ci/workspace/chipset_pipeline_release/opensource/component_code/vendor/huawei/extra/build/build_script/kirin_kernel_release/kernel/include/linux/task_io_accounting.h"
	.file	141 "/mnt/disk/jenkins/ci/workspace/chipset_pipeline_release/opensource/component_code/vendor/huawei/extra/build/build_script/kirin_kernel_release/kernel/include/linux/nodemask.h"
	.file	142 "/mnt/disk/jenkins/ci/workspace/chipset_pipeline_release/opensource/component_code/vendor/huawei/extra/build/build_script/kirin_kernel_release/kernel/arch/arm64/include/asm/processor.h"
	.file	143 "/mnt/disk/jenkins/ci/workspace/chipset_pipeline_release/opensource/component_code/vendor/huawei/extra/build/build_script/kirin_kernel_release/kernel/block/mas_bkops_core.c"
	.file	144 "/mnt/disk/jenkins/ci/workspace/chipset_pipeline_release/opensource/component_code/vendor/huawei/extra/build/build_script/kirin_kernel_release/kernel/arch/arm64/include/uapi/asm/ptrace.h"
	.file	145 "/mnt/disk/jenkins/ci/workspace/chipset_pipeline_release/opensource/component_code/vendor/huawei/extra/build/build_script/kirin_kernel_release/kernel/arch/arm64/include/asm/fpsimd.h"
	.file	146 "/mnt/disk/jenkins/ci/workspace/chipset_pipeline_release/opensource/component_code/vendor/huawei/extra/build/build_script/kirin_kernel_release/kernel/include/linux/mas_bkops_core.h"
	.file	147 "/mnt/disk/jenkins/ci/workspace/chipset_pipeline_release/opensource/component_code/vendor/huawei/extra/build/build_script/kirin_kernel_release/kernel/include/linux/timekeeping.h"
	.file	148 "/mnt/disk/jenkins/ci/workspace/chipset_pipeline_release/opensource/component_code/vendor/huawei/extra/build/build_script/kirin_kernel_release/kernel/include/linux/stddef.h"
	.file	149 "/mnt/disk/jenkins/ci/workspace/chipset_pipeline_release/opensource/component_code/vendor/huawei/extra/build/build_script/kirin_kernel_release/kernel/include/linux/slab.h"
	.section	.text.bkops_idle_work_func,"ax",@progbits
	.hidden	bkops_idle_work_func    // -- Begin function bkops_idle_work_func
	.globl	bkops_idle_work_func
	.p2align	2
	.type	bkops_idle_work_func,@function
bkops_idle_work_func:                   // @bkops_idle_work_func
.Lfunc_begin0:
	.loc	5 219 0                 // kernel/block/mas_bkops_core.c:219:0
	.cfi_sections .debug_frame
	.cfi_startproc
// %bb.0:
	//DEBUG_VALUE: bkops_idle_work_func:work <- $x0
	sub	sp, sp, #64             // =64
	stp	x22, x21, [sp, #16]     // 16-byte Folded Spill
	stp	x20, x19, [sp, #32]     // 16-byte Folded Spill
	stp	x29, x30, [sp, #48]     // 16-byte Folded Spill
	add	x29, sp, #48            // =48
	.cfi_def_cfa w29, 16
	.cfi_offset w30, -8
	.cfi_offset w29, -16
	.cfi_offset w19, -24
	.cfi_offset w20, -32
	.cfi_offset w21, -40
	.cfi_offset w22, -48
	adrp	x8, __stack_chk_guard
	ldr	x8, [x8, :lo12:__stack_chk_guard]
	mov	x19, x0
	str	x8, [sp, #8]
.Ltmp0:
	//DEBUG_VALUE: bkops_idle_work_func:bkops_status <- 0
	//DEBUG_VALUE: bkops_idle_work_func:work <- $x19
	.loc	5 220 6 prologue_end    // kernel/block/mas_bkops_core.c:220:6
	str	wzr, [sp, #4]
.Ltmp1:
	//DEBUG_VALUE: mas_bkops_query:ret <- 0
	//DEBUG_VALUE: mas_bkops_query:bkops_status <- [DW_OP_plus_uconst 4] $sp
	//DEBUG_VALUE: mas_bkops_query:bkops <- [DW_OP_constu 32, DW_OP_minus, DW_OP_stack_value] $x19
	//DEBUG_VALUE: bkops_idle_work_func:bkops_status <- [DW_OP_plus_uconst 4, DW_OP_deref] $sp
	//DEBUG_VALUE: bkops_idle_work_func:bkops <- [DW_OP_constu 32, DW_OP_minus, DW_OP_stack_value] $x19
	.loc	5 99 41                 // kernel/block/mas_bkops_core.c:99:41
	ldur	x20, [x0, #-24]
.Ltmp2:
	//DEBUG_VALUE: mas_bkops_query:bkops_ops_p <- $x20
	.loc	5 106 2                 // kernel/block/mas_bkops_core.c:106:2
	adrp	x0, bkops_lock
	add	x0, x0, :lo12:bkops_lock
	bl	mutex_lock
.Ltmp3:
	.loc	5 107 7                 // kernel/block/mas_bkops_core.c:107:7
	adrp	x21, bkops_enabled
	ldrb	w8, [x21, :lo12:bkops_enabled]
.Ltmp4:
	.loc	5 107 6 is_stmt 0       // kernel/block/mas_bkops_core.c:107:6
	cmp	w8, #1                  // =1
	b.ne	.LBB0_2
.Ltmp5:
// %bb.1:
	//DEBUG_VALUE: mas_bkops_query:bkops_ops_p <- $x20
	//DEBUG_VALUE: bkops_idle_work_func:bkops <- [DW_OP_constu 32, DW_OP_minus, DW_OP_stack_value] $x19
	//DEBUG_VALUE: bkops_idle_work_func:bkops_status <- [DW_OP_plus_uconst 4, DW_OP_deref] $sp
	//DEBUG_VALUE: mas_bkops_query:bkops <- [DW_OP_constu 32, DW_OP_minus, DW_OP_stack_value] $x19
	//DEBUG_VALUE: mas_bkops_query:bkops_status <- [DW_OP_plus_uconst 4] $sp
	//DEBUG_VALUE: bkops_idle_work_func:work <- $x19
	//DEBUG_LABEL: mas_bkops_query:out
	.loc	5 140 2 is_stmt 1       // kernel/block/mas_bkops_core.c:140:2
	adrp	x0, bkops_lock
	add	x0, x0, :lo12:bkops_lock
	bl	mutex_unlock
	b	.LBB0_8
.Ltmp6:
.LBB0_2:
	//DEBUG_VALUE: mas_bkops_query:bkops_ops_p <- $x20
	//DEBUG_VALUE: bkops_idle_work_func:bkops <- [DW_OP_constu 32, DW_OP_minus, DW_OP_stack_value] $x19
	//DEBUG_VALUE: bkops_idle_work_func:bkops_status <- [DW_OP_plus_uconst 4, DW_OP_deref] $sp
	//DEBUG_VALUE: mas_bkops_query:bkops <- [DW_OP_constu 32, DW_OP_minus, DW_OP_stack_value] $x19
	//DEBUG_VALUE: mas_bkops_query:bkops_status <- [DW_OP_plus_uconst 4] $sp
	//DEBUG_VALUE: bkops_idle_work_func:work <- $x19
	.loc	5 119 21                // kernel/block/mas_bkops_core.c:119:21
	ldr	x8, [x20, #8]
	.loc	5 120 10                // kernel/block/mas_bkops_core.c:120:10
	ldur	x0, [x19, #-16]
	.loc	5 119 8                 // kernel/block/mas_bkops_core.c:119:8
	add	x1, sp, #4              // =4
	blr	x8
.Ltmp7:
	.loc	5 121 6                 // kernel/block/mas_bkops_core.c:121:6
	adrp	x8, user_manual_gc
	ldrb	w9, [x8, :lo12:user_manual_gc]
.Ltmp8:
	.loc	5 119 8                 // kernel/block/mas_bkops_core.c:119:8
	mov	w20, w0
.Ltmp9:
	//DEBUG_VALUE: bkops_idle_work_func:ret <- $w20
	//DEBUG_VALUE: mas_bkops_query:ret <- $w20
	.loc	5 121 21                // kernel/block/mas_bkops_core.c:121:21
	cbz	w9, .LBB0_5
.Ltmp10:
// %bb.3:
	//DEBUG_VALUE: mas_bkops_query:ret <- $w20
	//DEBUG_VALUE: bkops_idle_work_func:ret <- $w20
	//DEBUG_VALUE: bkops_idle_work_func:bkops <- [DW_OP_constu 32, DW_OP_minus, DW_OP_stack_value] $x19
	//DEBUG_VALUE: bkops_idle_work_func:bkops_status <- [DW_OP_plus_uconst 4, DW_OP_deref] $sp
	//DEBUG_VALUE: mas_bkops_query:bkops <- [DW_OP_constu 32, DW_OP_minus, DW_OP_stack_value] $x19
	//DEBUG_VALUE: mas_bkops_query:bkops_status <- [DW_OP_plus_uconst 4] $sp
	//DEBUG_VALUE: bkops_idle_work_func:work <- $x19
	.loc	5 0 0 is_stmt 0         // kernel/block/mas_bkops_core.c:0:0
	ldr	w9, [sp, #4]
	.loc	5 121 21                // kernel/block/mas_bkops_core.c:121:21
	cbnz	w9, .LBB0_5
.Ltmp11:
// %bb.4:
	//DEBUG_VALUE: mas_bkops_query:ret <- $w20
	//DEBUG_VALUE: bkops_idle_work_func:ret <- $w20
	//DEBUG_VALUE: bkops_idle_work_func:bkops <- [DW_OP_constu 32, DW_OP_minus, DW_OP_stack_value] $x19
	//DEBUG_VALUE: bkops_idle_work_func:bkops_status <- [DW_OP_plus_uconst 4, DW_OP_deref] $sp
	//DEBUG_VALUE: mas_bkops_query:bkops <- [DW_OP_constu 32, DW_OP_minus, DW_OP_stack_value] $x19
	//DEBUG_VALUE: mas_bkops_query:bkops_status <- [DW_OP_plus_uconst 4] $sp
	//DEBUG_VALUE: bkops_idle_work_func:work <- $x19
	.loc	5 122 18 is_stmt 1      // kernel/block/mas_bkops_core.c:122:18
	strb	wzr, [x8, :lo12:user_manual_gc]
.Ltmp12:
.LBB0_5:
	//DEBUG_VALUE: mas_bkops_query:ret <- $w20
	//DEBUG_VALUE: bkops_idle_work_func:ret <- $w20
	//DEBUG_VALUE: bkops_idle_work_func:bkops <- [DW_OP_constu 32, DW_OP_minus, DW_OP_stack_value] $x19
	//DEBUG_VALUE: bkops_idle_work_func:bkops_status <- [DW_OP_plus_uconst 4, DW_OP_deref] $sp
	//DEBUG_VALUE: mas_bkops_query:bkops <- [DW_OP_constu 32, DW_OP_minus, DW_OP_stack_value] $x19
	//DEBUG_VALUE: mas_bkops_query:bkops_status <- [DW_OP_plus_uconst 4] $sp
	//DEBUG_VALUE: bkops_idle_work_func:work <- $x19
	//DEBUG_LABEL: mas_bkops_query:out
	.loc	5 140 2                 // kernel/block/mas_bkops_core.c:140:2
	adrp	x0, bkops_lock
	add	x0, x0, :lo12:bkops_lock
	bl	mutex_unlock
.Ltmp13:
	.loc	5 226 6                 // kernel/block/mas_bkops_core.c:226:6
	cbz	w20, .LBB0_8
.Ltmp14:
// %bb.6:
	//DEBUG_VALUE: bkops_idle_work_func:ret <- $w20
	//DEBUG_VALUE: bkops_idle_work_func:bkops <- [DW_OP_constu 32, DW_OP_minus, DW_OP_stack_value] $x19
	//DEBUG_VALUE: bkops_idle_work_func:bkops_status <- [DW_OP_plus_uconst 4, DW_OP_deref] $sp
	//DEBUG_VALUE: bkops_idle_work_func:work <- $x19
	.loc	5 227 3                 // kernel/block/mas_bkops_core.c:227:3
	adrp	x0, .L.str
	add	x0, x0, :lo12:.L.str
.Ltmp15:
.LBB0_7:
	.loc	5 0 0 is_stmt 0         // kernel/block/mas_bkops_core.c:0:0
	bl	printk
	b	.LBB0_15
.LBB0_8:
.Ltmp16:
	//DEBUG_VALUE: bkops_idle_work_func:bkops <- [DW_OP_constu 32, DW_OP_minus, DW_OP_stack_value] $x19
	//DEBUG_VALUE: bkops_idle_work_func:bkops_status <- [DW_OP_plus_uconst 4, DW_OP_deref] $sp
	//DEBUG_VALUE: bkops_idle_work_func:work <- $x19
	//DEBUG_VALUE: test_bit:addr <- undef
	.loc	5 230 20 is_stmt 1      // kernel/block/mas_bkops_core.c:230:20
	mov	x20, x19
	ldr	x8, [x20, #96]!
	and	x8, x8, #0xfffffffffffffffd
	str	x8, [x20]
	.loc	5 233 24                // kernel/block/mas_bkops_core.c:233:24
	ldr	w8, [sp, #4]
.Ltmp17:
	//DEBUG_VALUE: bkops_idle_work_func:bkops_status <- $w8
	.loc	5 233 22 is_stmt 0      // kernel/block/mas_bkops_core.c:233:22
	str	w8, [x20, #72]
	cbz	w8, .LBB0_15
.Ltmp18:
// %bb.9:
	//DEBUG_VALUE: bkops_idle_work_func:bkops_status <- $w8
	//DEBUG_VALUE: bkops_idle_work_func:bkops <- [DW_OP_constu 32, DW_OP_minus, DW_OP_stack_value] $x19
	//DEBUG_VALUE: bkops_idle_work_func:work <- $x19
	//DEBUG_VALUE: test_bit:nr <- 0
	.file	150 "/mnt/disk/jenkins/ci/workspace/chipset_pipeline_release/opensource/component_code/vendor/huawei/extra/build/build_script/kirin_kernel_release/kernel/include/asm-generic/bitops/non-atomic.h"
	.loc	150 106 16 is_stmt 1    // kernel/include/asm-generic/bitops/non-atomic.h:106:16
	ldr	x8, [x20]
.Ltmp19:
	.loc	150 0 16 is_stmt 0      // kernel/include/asm-generic/bitops/non-atomic.h:0:16
	tbnz	w8, #0, .LBB0_15
.Ltmp20:
// %bb.10:
	//DEBUG_VALUE: bkops_idle_work_func:bkops <- [DW_OP_constu 32, DW_OP_minus, DW_OP_stack_value] $x19
	//DEBUG_VALUE: bkops_idle_work_func:work <- $x19
	//DEBUG_VALUE: mas_bkops_start:bkops <- [DW_OP_constu 32, DW_OP_minus, DW_OP_stack_value] $x19
	//DEBUG_VALUE: mas_bkops_start:ret <- 0
	.loc	5 147 41 is_stmt 1      // kernel/block/mas_bkops_core.c:147:41
	ldur	x22, [x19, #-24]
.Ltmp21:
	//DEBUG_VALUE: mas_bkops_start:bkops_ops_p <- $x22
	.loc	5 157 2                 // kernel/block/mas_bkops_core.c:157:2
	adrp	x0, bkops_lock
	add	x0, x0, :lo12:bkops_lock
	bl	mutex_lock
.Ltmp22:
	.loc	5 158 7                 // kernel/block/mas_bkops_core.c:158:7
	ldrb	w8, [x21, :lo12:bkops_enabled]
.Ltmp23:
	.loc	5 158 6 is_stmt 0       // kernel/block/mas_bkops_core.c:158:6
	cmp	w8, #1                  // =1
	b.ne	.LBB0_12
.Ltmp24:
// %bb.11:
	//DEBUG_VALUE: mas_bkops_start:bkops_ops_p <- $x22
	//DEBUG_VALUE: mas_bkops_start:bkops <- [DW_OP_constu 32, DW_OP_minus, DW_OP_stack_value] $x19
	//DEBUG_VALUE: bkops_idle_work_func:bkops <- [DW_OP_constu 32, DW_OP_minus, DW_OP_stack_value] $x19
	//DEBUG_VALUE: bkops_idle_work_func:work <- $x19
	//DEBUG_LABEL: mas_bkops_start:out
	.loc	5 180 2 is_stmt 1       // kernel/block/mas_bkops_core.c:180:2
	adrp	x0, bkops_lock
	add	x0, x0, :lo12:bkops_lock
	bl	mutex_unlock
	b	.LBB0_14
.Ltmp25:
.LBB0_12:
	//DEBUG_VALUE: mas_bkops_start:bkops_ops_p <- $x22
	//DEBUG_VALUE: mas_bkops_start:bkops <- [DW_OP_constu 32, DW_OP_minus, DW_OP_stack_value] $x19
	//DEBUG_VALUE: bkops_idle_work_func:bkops <- [DW_OP_constu 32, DW_OP_minus, DW_OP_stack_value] $x19
	//DEBUG_VALUE: bkops_idle_work_func:work <- $x19
	.loc	5 161 21                // kernel/block/mas_bkops_core.c:161:21
	ldr	x8, [x22]
	.loc	5 161 45 is_stmt 0      // kernel/block/mas_bkops_core.c:161:45
	ldur	x0, [x19, #-16]
	.loc	5 161 8                 // kernel/block/mas_bkops_core.c:161:8
	orr	w1, wzr, #0x1
	blr	x8
	mov	w19, w0
.Ltmp26:
	//DEBUG_LABEL: mas_bkops_start:out
	//DEBUG_VALUE: mas_bkops_start:ret <- $w19
	//DEBUG_VALUE: bkops_idle_work_func:ret <- $w19
	.loc	5 180 2 is_stmt 1       // kernel/block/mas_bkops_core.c:180:2
	adrp	x0, bkops_lock
	add	x0, x0, :lo12:bkops_lock
	bl	mutex_unlock
.Ltmp27:
	.loc	5 241 7                 // kernel/block/mas_bkops_core.c:241:7
	cbz	w19, .LBB0_14
.Ltmp28:
// %bb.13:
	//DEBUG_VALUE: bkops_idle_work_func:ret <- $w19
	.loc	5 242 4                 // kernel/block/mas_bkops_core.c:242:4
	adrp	x0, .L.str.1
	add	x0, x0, :lo12:.L.str.1
	b	.LBB0_7
.Ltmp29:
.LBB0_14:
	.loc	5 244 4                 // kernel/block/mas_bkops_core.c:244:4
	mov	w0, wzr
	mov	x1, x20
	bl	set_bit
.Ltmp30:
.LBB0_15:
	.loc	5 0 4 is_stmt 0         // kernel/block/mas_bkops_core.c:0:4
	adrp	x9, __stack_chk_guard
	ldr	x8, [sp, #8]
	ldr	x9, [x9, :lo12:__stack_chk_guard]
	cmp	x9, x8
	b.ne	.LBB0_17
// %bb.16:
	.loc	5 246 1 is_stmt 1       // kernel/block/mas_bkops_core.c:246:1
	ldp	x29, x30, [sp, #48]     // 16-byte Folded Reload
	ldp	x20, x19, [sp, #32]     // 16-byte Folded Reload
	ldp	x22, x21, [sp, #16]     // 16-byte Folded Reload
	add	sp, sp, #64             // =64
	ret
.Ltmp31:
.LBB0_17:
	.loc	5 0 1 is_stmt 0         // kernel/block/mas_bkops_core.c:0:1
	bl	__stack_chk_fail
.Lfunc_end0:
	.size	bkops_idle_work_func, .Lfunc_end0-bkops_idle_work_func
	.cfi_endproc
                                        // -- End function
	.section	.text.bkops_io_busyidle_notify_handler,"ax",@progbits
	.hidden	bkops_io_busyidle_notify_handler // -- Begin function bkops_io_busyidle_notify_handler
	.globl	bkops_io_busyidle_notify_handler
	.p2align	2
	.type	bkops_io_busyidle_notify_handler,@function
bkops_io_busyidle_notify_handler:       // @bkops_io_busyidle_notify_handler
.Lfunc_begin1:
	.loc	5 364 0 is_stmt 1       // kernel/block/mas_bkops_core.c:364:0
	.cfi_startproc
// %bb.0:
	//DEBUG_VALUE: bkops_io_busyidle_notify_handler:event_node <- $x0
	//DEBUG_VALUE: bkops_io_busyidle_notify_handler:event_node <- $x0
	//DEBUG_VALUE: bkops_io_busyidle_notify_handler:state <- $w1
	str	x21, [sp, #-48]!        // 8-byte Folded Spill
	stp	x20, x19, [sp, #16]     // 16-byte Folded Spill
	stp	x29, x30, [sp, #32]     // 16-byte Folded Spill
	add	x29, sp, #32            // =32
	.cfi_def_cfa w29, 16
	.cfi_offset w30, -8
	.cfi_offset w29, -16
	.cfi_offset w19, -24
	.cfi_offset w20, -32
	.cfi_offset w21, -48
.Ltmp32:
	//DEBUG_VALUE: bkops_io_busyidle_notify_handler:ret <- 0
	.loc	5 370 36 prologue_end   // kernel/block/mas_bkops_core.c:370:36
	ldr	x21, [x0, #40]
.Ltmp33:
	//DEBUG_VALUE: bkops_io_busyidle_notify_handler:bkops <- $x21
	//DEBUG_VALUE: bkops_should_query:bkops <- $x21
	//DEBUG_VALUE: bkops_strategy:bkops <- $x21
	//DEBUG_VALUE: mas_bkops_stop:bkops <- $x21
	.loc	5 372 2                 // kernel/block/mas_bkops_core.c:372:2
	cbz	w1, .LBB1_15
.Ltmp34:
// %bb.1:
	//DEBUG_VALUE: bkops_io_busyidle_notify_handler:bkops <- $x21
	//DEBUG_VALUE: bkops_io_busyidle_notify_handler:state <- $w1
	//DEBUG_VALUE: bkops_io_busyidle_notify_handler:event_node <- $x0
	.loc	5 0 2 is_stmt 0         // kernel/block/mas_bkops_core.c:0:2
	mov	w19, w1
.Ltmp35:
	//DEBUG_VALUE: bkops_io_busyidle_notify_handler:state <- $w19
	.loc	5 372 2                 // kernel/block/mas_bkops_core.c:372:2
	cmp	w1, #1                  // =1
	b.ne	.LBB1_20
.Ltmp36:
// %bb.2:
	//DEBUG_VALUE: bkops_io_busyidle_notify_handler:state <- $w19
	//DEBUG_VALUE: bkops_io_busyidle_notify_handler:bkops <- $x21
	//DEBUG_VALUE: bkops_io_busyidle_notify_handler:event_node <- $x0
	.loc	5 299 13 is_stmt 1      // kernel/block/mas_bkops_core.c:299:13
	mov	x19, x21
.Ltmp37:
	ldr	x8, [x19, #128]!
.Ltmp38:
	.loc	5 299 6 is_stmt 0       // kernel/block/mas_bkops_core.c:299:6
	tbnz	w8, #1, .LBB1_25
.Ltmp39:
// %bb.3:
	//DEBUG_VALUE: bkops_io_busyidle_notify_handler:bkops <- $x21
	//DEBUG_VALUE: bkops_io_busyidle_notify_handler:event_node <- $x0
	.loc	5 302 13 is_stmt 1      // kernel/block/mas_bkops_core.c:302:13
	ldr	w9, [x21, #204]
	.loc	5 302 28 is_stmt 0      // kernel/block/mas_bkops_core.c:302:28
	cbz	w9, .LBB1_5
.Ltmp40:
// %bb.4:
	//DEBUG_VALUE: bkops_io_busyidle_notify_handler:bkops <- $x21
	//DEBUG_VALUE: bkops_io_busyidle_notify_handler:event_node <- $x0
	.loc	5 302 38                // kernel/block/mas_bkops_core.c:302:38
	ldr	w9, [x21, #200]
.Ltmp41:
	.loc	5 302 6                 // kernel/block/mas_bkops_core.c:302:6
	cbnz	w9, .LBB1_25
.Ltmp42:
.LBB1_5:
	//DEBUG_VALUE: bkops_io_busyidle_notify_handler:bkops <- $x21
	//DEBUG_VALUE: bkops_io_busyidle_notify_handler:event_node <- $x0
	.loc	5 250 51 is_stmt 1      // kernel/block/mas_bkops_core.c:250:51
	ldr	x0, [x21, #24]
.Ltmp43:
	.loc	5 250 28 is_stmt 0      // kernel/block/mas_bkops_core.c:250:28
	bl	mas_blk_get_lld
.Ltmp44:
	.loc	5 253 13 is_stmt 1      // kernel/block/mas_bkops_core.c:253:13
	ldr	x8, [x21, #128]
.Ltmp45:
	.loc	5 250 28                // kernel/block/mas_bkops_core.c:250:28
	mov	x20, x0
.Ltmp46:
	//DEBUG_VALUE: bkops_strategy:lld <- $x20
	.loc	5 253 6                 // kernel/block/mas_bkops_core.c:253:6
	tbz	w8, #4, .LBB1_9
.Ltmp47:
// %bb.6:
	//DEBUG_VALUE: bkops_strategy:lld <- $x20
	//DEBUG_VALUE: bkops_io_busyidle_notify_handler:bkops <- $x21
	//DEBUG_VALUE: bkops_strategy:tp <- [DW_OP_deref] undef
	//DEBUG_VALUE: get_monotonic_boottime:ts <- undef
	.loc	147 197 9               // kernel/include/linux/timekeeping.h:197:9
	orr	w0, wzr, #0x1
	bl	ktime_get_with_offset
.Ltmp48:
	.loc	147 250 8               // kernel/include/linux/timekeeping.h:250:8
	bl	ns_to_timespec
.Ltmp49:
	.loc	5 255 7                 // kernel/block/mas_bkops_core.c:255:7
	ldr	x8, [x21, #216]
	.loc	5 255 47 is_stmt 0      // kernel/block/mas_bkops_core.c:255:47
	cbz	x8, .LBB1_27
.Ltmp50:
// %bb.7:
	//DEBUG_VALUE: bkops_strategy:lld <- $x20
	//DEBUG_VALUE: bkops_io_busyidle_notify_handler:bkops <- $x21
	.loc	5 256 4 is_stmt 1       // kernel/block/mas_bkops_core.c:256:4
	ldr	x9, [x21, #208]
	sub	x8, x0, x8
.Ltmp51:
	.loc	5 255 7                 // kernel/block/mas_bkops_core.c:255:7
	cmp	x8, x9
	b.ge	.LBB1_27
.Ltmp52:
// %bb.8:
	//DEBUG_VALUE: bkops_strategy:lld <- $x20
	//DEBUG_VALUE: bkops_io_busyidle_notify_handler:bkops <- $x21
	.loc	5 266 14                // kernel/block/mas_bkops_core.c:266:14
	ldr	x8, [x19]
.Ltmp53:
.LBB1_9:
	//DEBUG_VALUE: bkops_strategy:lld <- $x20
	//DEBUG_VALUE: bkops_io_busyidle_notify_handler:bkops <- $x21
	.loc	5 266 51 is_stmt 0      // kernel/block/mas_bkops_core.c:266:51
	tbz	w8, #3, .LBB1_11
.Ltmp54:
// %bb.10:
	//DEBUG_VALUE: bkops_strategy:lld <- $x20
	//DEBUG_VALUE: bkops_io_busyidle_notify_handler:bkops <- $x21
	.loc	5 267 10 is_stmt 1      // kernel/block/mas_bkops_core.c:267:10
	ldr	x9, [x20, #448]
	.loc	5 267 31 is_stmt 0      // kernel/block/mas_bkops_core.c:267:31
	ldp	x11, x10, [x21, #224]
	.loc	5 267 22                // kernel/block/mas_bkops_core.c:267:22
	sub	x10, x9, x10
.Ltmp55:
	.loc	5 266 6 is_stmt 1       // kernel/block/mas_bkops_core.c:266:6
	cmp	x10, x11
	b.hs	.LBB1_23
.Ltmp56:
.LBB1_11:
	//DEBUG_VALUE: bkops_strategy:lld <- $x20
	//DEBUG_VALUE: bkops_io_busyidle_notify_handler:bkops <- $x21
	.loc	5 276 49                // kernel/block/mas_bkops_core.c:276:49
	tbz	w8, #2, .LBB1_13
.Ltmp57:
// %bb.12:
	//DEBUG_VALUE: bkops_strategy:lld <- $x20
	//DEBUG_VALUE: bkops_io_busyidle_notify_handler:bkops <- $x21
	.loc	5 277 10                // kernel/block/mas_bkops_core.c:277:10
	ldr	x9, [x20, #440]
	.loc	5 277 29 is_stmt 0      // kernel/block/mas_bkops_core.c:277:29
	ldp	x11, x10, [x21, #240]
	.loc	5 277 20                // kernel/block/mas_bkops_core.c:277:20
	sub	x10, x9, x10
.Ltmp58:
	.loc	5 276 6 is_stmt 1       // kernel/block/mas_bkops_core.c:276:6
	cmp	x10, x11
	b.hs	.LBB1_24
.Ltmp59:
.LBB1_13:
	//DEBUG_VALUE: bkops_io_busyidle_notify_handler:bkops <- $x21
	.loc	5 312 6                 // kernel/block/mas_bkops_core.c:312:6
	adrp	x9, user_manual_gc
	ldrb	w9, [x9, :lo12:user_manual_gc]
.Ltmp60:
	.loc	5 309 6                 // kernel/block/mas_bkops_core.c:309:6
	cbnz	w9, .LBB1_25
.Ltmp61:
// %bb.14:
	//DEBUG_VALUE: bkops_io_busyidle_notify_handler:bkops <- $x21
	.loc	5 318 20                // kernel/block/mas_bkops_core.c:318:20
	and	x8, x8, #0xfffffffffffffffd
.Ltmp62:
	.loc	5 0 0 is_stmt 0         // kernel/block/mas_bkops_core.c:0:0
	mov	w0, wzr
.Ltmp63:
	str	x8, [x19]
	b	.LBB1_26
.Ltmp64:
.LBB1_15:
	//DEBUG_VALUE: bkops_io_busyidle_notify_handler:bkops <- $x21
	//DEBUG_VALUE: bkops_io_busyidle_notify_handler:state <- $w1
	//DEBUG_VALUE: bkops_io_busyidle_notify_handler:event_node <- $x0
	.loc	5 390 42 is_stmt 1      // kernel/block/mas_bkops_core.c:390:42
	add	x19, x21, #128          // =128
.Ltmp65:
	//DEBUG_VALUE: test_bit:addr <- $x19
	.loc	5 389 8                 // kernel/block/mas_bkops_core.c:389:8
	mov	w0, #5
.Ltmp66:
	mov	x1, x19
.Ltmp67:
	bl	test_and_clear_bit
.Ltmp68:
	.loc	5 389 7 is_stmt 0       // kernel/block/mas_bkops_core.c:389:7
	cbz	w0, .LBB1_26
.Ltmp69:
// %bb.16:
	//DEBUG_VALUE: test_bit:addr <- $x19
	//DEBUG_VALUE: bkops_io_busyidle_notify_handler:bkops <- $x21
	.loc	5 393 36 is_stmt 1      // kernel/block/mas_bkops_core.c:393:36
	add	x0, x21, #32            // =32
	.loc	5 393 3 is_stmt 0       // kernel/block/mas_bkops_core.c:393:3
	bl	cancel_delayed_work_sync
.Ltmp70:
	//DEBUG_VALUE: test_bit:nr <- 0
	.loc	150 106 16 is_stmt 1    // kernel/include/asm-generic/bitops/non-atomic.h:106:16
	ldr	x8, [x21, #128]
.Ltmp71:
	.loc	5 401 7                 // kernel/block/mas_bkops_core.c:401:7
	tbz	w8, #0, .LBB1_22
.Ltmp72:
// %bb.17:
	//DEBUG_VALUE: bkops_io_busyidle_notify_handler:bkops <- $x21
	.loc	5 195 2                 // kernel/block/mas_bkops_core.c:195:2
	adrp	x0, bkops_lock
	add	x0, x0, :lo12:bkops_lock
	bl	mutex_lock
.Ltmp73:
	.loc	5 196 7                 // kernel/block/mas_bkops_core.c:196:7
	adrp	x8, bkops_enabled
	ldrb	w8, [x8, :lo12:bkops_enabled]
.Ltmp74:
	.loc	5 196 6 is_stmt 0       // kernel/block/mas_bkops_core.c:196:6
	tbnz	w8, #0, .LBB1_19
.Ltmp75:
// %bb.18:
	//DEBUG_VALUE: bkops_io_busyidle_notify_handler:bkops <- $x21
	.loc	5 199 9 is_stmt 1       // kernel/block/mas_bkops_core.c:199:9
	ldp	x8, x0, [x21, #8]
	.loc	5 199 2 is_stmt 0       // kernel/block/mas_bkops_core.c:199:2
	mov	w1, wzr
	.loc	5 199 20                // kernel/block/mas_bkops_core.c:199:20
	ldr	x8, [x8]
	.loc	5 199 2                 // kernel/block/mas_bkops_core.c:199:2
	blr	x8
.Ltmp76:
.LBB1_19:
	//DEBUG_VALUE: bkops_io_busyidle_notify_handler:bkops <- $x21
	//DEBUG_LABEL: mas_bkops_stop:out
	.loc	5 205 2 is_stmt 1       // kernel/block/mas_bkops_core.c:205:2
	adrp	x0, bkops_lock
	add	x0, x0, :lo12:bkops_lock
	bl	mutex_unlock
.Ltmp77:
	.loc	5 403 4                 // kernel/block/mas_bkops_core.c:403:4
	mov	w0, wzr
	mov	x1, x19
	bl	clear_bit
	b	.LBB1_22
.Ltmp78:
.LBB1_20:
	//DEBUG_VALUE: bkops_io_busyidle_notify_handler:state <- $w19
	//DEBUG_VALUE: bkops_io_busyidle_notify_handler:bkops <- $x21
	//DEBUG_VALUE: bkops_io_busyidle_notify_handler:event_node <- $x0
	.loc	5 414 3                 // kernel/block/mas_bkops_core.c:414:3
	adrp	x0, bkops_io_busyidle_notify_handler._rs
.Ltmp79:
	adrp	x1, .L__func__.bkops_io_busyidle_notify_handler
	add	x0, x0, :lo12:bkops_io_busyidle_notify_handler._rs
	add	x1, x1, :lo12:.L__func__.bkops_io_busyidle_notify_handler
	bl	___ratelimit
.Ltmp80:
	.loc	5 414 3 is_stmt 0       // kernel/block/mas_bkops_core.c:414:3
	cbz	w0, .LBB1_26
.Ltmp81:
// %bb.21:
	//DEBUG_VALUE: bkops_io_busyidle_notify_handler:state <- $w19
	//DEBUG_VALUE: bkops_io_busyidle_notify_handler:bkops <- $x21
	.loc	5 414 3                 // kernel/block/mas_bkops_core.c:414:3
	adrp	x0, .L.str.2
	adrp	x1, .L__func__.bkops_io_busyidle_notify_handler
	add	x0, x0, :lo12:.L.str.2
	add	x1, x1, :lo12:.L__func__.bkops_io_busyidle_notify_handler
	mov	w2, w19
	bl	printk
.Ltmp82:
.LBB1_22:
	//DEBUG_VALUE: bkops_io_busyidle_notify_handler:bkops <- $x21
	.loc	5 0 0                   // kernel/block/mas_bkops_core.c:0:0
	mov	w0, wzr
	b	.LBB1_26
.Ltmp83:
.LBB1_23:
	//DEBUG_VALUE: bkops_strategy:lld <- $x20
	//DEBUG_VALUE: bkops_io_busyidle_notify_handler:bkops <- $x21
	.loc	5 269 27 is_stmt 1      // kernel/block/mas_bkops_core.c:269:27
	str	x9, [x21, #232]
	b	.LBB1_25
.Ltmp84:
.LBB1_24:
	//DEBUG_VALUE: bkops_strategy:lld <- $x20
	//DEBUG_VALUE: bkops_io_busyidle_notify_handler:bkops <- $x21
	.loc	5 279 25                // kernel/block/mas_bkops_core.c:279:25
	str	x9, [x21, #248]
.Ltmp85:
.LBB1_25:
	//DEBUG_VALUE: bkops_io_busyidle_notify_handler:bkops <- $x21
	//DEBUG_LABEL: bkops_should_query:query_needed
	.loc	5 322 20                // kernel/block/mas_bkops_core.c:322:20
	orr	x8, x8, #0x2
.Ltmp86:
	.loc	5 379 3                 // kernel/block/mas_bkops_core.c:379:3
	mov	w0, #5
	mov	x1, x19
.Ltmp87:
	.loc	5 0 0 is_stmt 0         // kernel/block/mas_bkops_core.c:0:0
	str	x8, [x21, #128]
.Ltmp88:
	.loc	5 379 3                 // kernel/block/mas_bkops_core.c:379:3
	bl	set_bit
	.loc	5 380 22 is_stmt 1      // kernel/block/mas_bkops_core.c:380:22
	adrp	x8, bkops_workqueue_g
	.loc	5 381 28                // kernel/block/mas_bkops_core.c:381:28
	ldr	w0, [x21, #136]
	.loc	5 380 22                // kernel/block/mas_bkops_core.c:380:22
	ldr	x19, [x8, :lo12:bkops_workqueue_g]
	.loc	5 380 49 is_stmt 0      // kernel/block/mas_bkops_core.c:380:49
	add	x20, x21, #32           // =32
.Ltmp89:
	//DEBUG_VALUE: msecs_to_jiffies:m <- $w0
	.file	151 "/mnt/disk/jenkins/ci/workspace/chipset_pipeline_release/opensource/component_code/vendor/huawei/extra/build/build_script/kirin_kernel_release/kernel/include/linux/jiffies.h"
	.loc	151 370 10 is_stmt 1    // kernel/include/linux/jiffies.h:370:10
	bl	__msecs_to_jiffies
.Ltmp90:
	mov	x3, x0
.Ltmp91:
	//DEBUG_VALUE: queue_delayed_work:delay <- $x3
	//DEBUG_VALUE: queue_delayed_work:dwork <- $x20
	//DEBUG_VALUE: queue_delayed_work:wq <- $x19
	.loc	53 506 9                // kernel/include/linux/workqueue.h:506:9
	orr	w0, wzr, #0x8
	mov	x1, x19
	mov	x2, x20
	bl	queue_delayed_work_on
.Ltmp92:
	.loc	53 0 9 is_stmt 0        // kernel/include/linux/workqueue.h:0:9
	orr	w0, wzr, #0x1
.Ltmp93:
	//DEBUG_VALUE: bkops_io_busyidle_notify_handler:ret <- 1
.LBB1_26:
	//DEBUG_VALUE: bkops_io_busyidle_notify_handler:bkops <- $x21
	//DEBUG_VALUE: bkops_io_busyidle_notify_handler:ret <- $w0
	.loc	5 418 2 is_stmt 1       // kernel/block/mas_bkops_core.c:418:2
	ldp	x29, x30, [sp, #32]     // 16-byte Folded Reload
	ldp	x20, x19, [sp, #16]     // 16-byte Folded Reload
	ldr	x21, [sp], #48          // 8-byte Folded Reload
.Ltmp94:
	ret
.Ltmp95:
.LBB1_27:
	//DEBUG_VALUE: bkops_strategy:lld <- $x20
	//DEBUG_VALUE: bkops_io_busyidle_notify_handler:bkops <- $x21
	.loc	5 322 20                // kernel/block/mas_bkops_core.c:322:20
	ldr	x8, [x21, #128]
.Ltmp96:
	.loc	5 258 33                // kernel/block/mas_bkops_core.c:258:33
	str	x0, [x21, #216]
	b	.LBB1_25
.Ltmp97:
.Lfunc_end1:
	.size	bkops_io_busyidle_notify_handler, .Lfunc_end1-bkops_io_busyidle_notify_handler
	.cfi_endproc
                                        // -- End function
	.section	.text.bkops_pm_callback,"ax",@progbits
	.hidden	bkops_pm_callback       // -- Begin function bkops_pm_callback
	.globl	bkops_pm_callback
	.p2align	2
	.type	bkops_pm_callback,@function
bkops_pm_callback:                      // @bkops_pm_callback
.Lfunc_begin2:
	.loc	5 625 0                 // kernel/block/mas_bkops_core.c:625:0
	.cfi_startproc
// %bb.0:
	//DEBUG_VALUE: bkops_pm_callback:self <- $x0
	//DEBUG_VALUE: bkops_pm_callback:action <- $x1
	//DEBUG_VALUE: bkops_pm_callback:action <- $x1
	//DEBUG_VALUE: bkops_pm_callback:ptr <- $x2
	stp	x20, x19, [sp, #-32]!   // 16-byte Folded Spill
	stp	x29, x30, [sp, #16]     // 16-byte Folded Spill
	add	x29, sp, #16            // =16
	.cfi_def_cfa w29, 16
	.cfi_offset w30, -8
	.cfi_offset w29, -16
	.cfi_offset w19, -24
	.cfi_offset w20, -32
.Ltmp98:
	.loc	5 626 2 prologue_end    // kernel/block/mas_bkops_core.c:626:2
	sub	x8, x1, #1              // =1
	cmp	x8, #3                  // =3
	b.hi	.LBB2_4
.Ltmp99:
// %bb.1:
	//DEBUG_VALUE: bkops_pm_callback:ptr <- $x2
	//DEBUG_VALUE: bkops_pm_callback:action <- $x1
	//DEBUG_VALUE: bkops_pm_callback:self <- $x0
	.loc	5 0 2 is_stmt 0         // kernel/block/mas_bkops_core.c:0:2
	adrp	x9, .LJTI2_0
	add	x9, x9, :lo12:.LJTI2_0
	adr	x10, .LBB2_2
	ldrb	w11, [x9, x8]
	add	x10, x10, x11, lsl #2
	br	x10
.Ltmp100:
.LBB2_2:
	//DEBUG_VALUE: bkops_pm_callback:ptr <- $x2
	//DEBUG_VALUE: bkops_pm_callback:action <- $x1
	//DEBUG_VALUE: bkops_pm_callback:self <- $x0
	.loc	5 610 2 is_stmt 1       // kernel/block/mas_bkops_core.c:610:2
	adrp	x20, bkops_lock
	add	x20, x20, :lo12:bkops_lock
	mov	x0, x20
.Ltmp101:
	bl	mutex_lock
.Ltmp102:
	.loc	5 611 16                // kernel/block/mas_bkops_core.c:611:16
	adrp	x8, bkops_enabled
	orr	w19, wzr, #0x1
	.loc	5 612 2                 // kernel/block/mas_bkops_core.c:612:2
	mov	x0, x20
	.loc	5 611 16                // kernel/block/mas_bkops_core.c:611:16
	strb	w19, [x8, :lo12:bkops_enabled]
	.loc	5 612 2                 // kernel/block/mas_bkops_core.c:612:2
	bl	mutex_unlock
	b	.LBB2_5
.Ltmp103:
.LBB2_3:
	//DEBUG_VALUE: bkops_pm_callback:ptr <- $x2
	//DEBUG_VALUE: bkops_pm_callback:action <- $x1
	//DEBUG_VALUE: bkops_pm_callback:self <- $x0
	.loc	5 617 2                 // kernel/block/mas_bkops_core.c:617:2
	adrp	x19, bkops_lock
	add	x19, x19, :lo12:bkops_lock
	mov	x0, x19
.Ltmp104:
	bl	mutex_lock
.Ltmp105:
	.loc	5 618 16                // kernel/block/mas_bkops_core.c:618:16
	adrp	x8, bkops_enabled
	.loc	5 619 2                 // kernel/block/mas_bkops_core.c:619:2
	mov	x0, x19
	.loc	5 618 16                // kernel/block/mas_bkops_core.c:618:16
	strb	wzr, [x8, :lo12:bkops_enabled]
	.loc	5 619 2                 // kernel/block/mas_bkops_core.c:619:2
	bl	mutex_unlock
	orr	w19, wzr, #0x1
	b	.LBB2_5
.Ltmp106:
.LBB2_4:
	//DEBUG_VALUE: bkops_pm_callback:ptr <- $x2
	//DEBUG_VALUE: bkops_pm_callback:action <- $x1
	//DEBUG_VALUE: bkops_pm_callback:self <- $x0
	.loc	5 0 0 is_stmt 0         // kernel/block/mas_bkops_core.c:0:0
	mov	w19, wzr
.Ltmp107:
.LBB2_5:
	.loc	5 642 1 is_stmt 1       // kernel/block/mas_bkops_core.c:642:1
	ldp	x29, x30, [sp, #16]     // 16-byte Folded Reload
	mov	w0, w19
	ldp	x20, x19, [sp], #32     // 16-byte Folded Reload
	ret
.Ltmp108:
.Lfunc_end2:
	.size	bkops_pm_callback, .Lfunc_end2-bkops_pm_callback
	.cfi_endproc
	.section	.rodata.bkops_pm_callback,"a",@progbits
.LJTI2_0:
	.byte	(.LBB2_2-.LBB2_2)>>2
	.byte	(.LBB2_3-.LBB2_2)>>2
	.byte	(.LBB2_2-.LBB2_2)>>2
	.byte	(.LBB2_3-.LBB2_2)>>2
                                        // -- End function
	.section	.text.bkops_notify_reboot,"ax",@progbits
	.hidden	bkops_notify_reboot     // -- Begin function bkops_notify_reboot
	.globl	bkops_notify_reboot
	.p2align	2
	.type	bkops_notify_reboot,@function
bkops_notify_reboot:                    // @bkops_notify_reboot
.Lfunc_begin3:
	.loc	5 647 0                 // kernel/block/mas_bkops_core.c:647:0
	.cfi_startproc
// %bb.0:
	//DEBUG_VALUE: bkops_notify_reboot:self <- $x0
	//DEBUG_VALUE: bkops_notify_reboot:code <- $x1
	//DEBUG_VALUE: bkops_notify_reboot:no_use <- $x2
	str	x19, [sp, #-32]!        // 8-byte Folded Spill
	stp	x29, x30, [sp, #16]     // 16-byte Folded Spill
	add	x29, sp, #16            // =16
	.cfi_def_cfa w29, 16
	.cfi_offset w30, -8
	.cfi_offset w29, -16
	.cfi_offset w19, -32
.Ltmp109:
	.loc	5 610 2 prologue_end    // kernel/block/mas_bkops_core.c:610:2
	adrp	x19, bkops_lock
	add	x19, x19, :lo12:bkops_lock
	mov	x0, x19
.Ltmp110:
	bl	mutex_lock
.Ltmp111:
	.loc	5 611 16                // kernel/block/mas_bkops_core.c:611:16
	adrp	x8, bkops_enabled
	orr	w9, wzr, #0x1
	.loc	5 612 2                 // kernel/block/mas_bkops_core.c:612:2
	mov	x0, x19
	.loc	5 611 16                // kernel/block/mas_bkops_core.c:611:16
	strb	w9, [x8, :lo12:bkops_enabled]
	.loc	5 612 2                 // kernel/block/mas_bkops_core.c:612:2
	bl	mutex_unlock
.Ltmp112:
	.loc	5 649 2                 // kernel/block/mas_bkops_core.c:649:2
	ldp	x29, x30, [sp, #16]     // 16-byte Folded Reload
	mov	w0, wzr
	ldr	x19, [sp], #32          // 8-byte Folded Reload
	ret
.Ltmp113:
.Lfunc_end3:
	.size	bkops_notify_reboot, .Lfunc_end3-bkops_notify_reboot
	.cfi_endproc
                                        // -- End function
	.section	.text.mas_bkops_alloc,"ax",@progbits
	.hidden	mas_bkops_alloc         // -- Begin function mas_bkops_alloc
	.globl	mas_bkops_alloc
	.p2align	2
	.type	mas_bkops_alloc,@function
mas_bkops_alloc:                        // @mas_bkops_alloc
.Lfunc_begin4:
	.loc	5 694 0                 // kernel/block/mas_bkops_core.c:694:0
	.cfi_startproc
// %bb.0:
	//DEBUG_VALUE: kzalloc:size <- 256
	//DEBUG_VALUE: kzalloc:flags <- 20971712
	//DEBUG_VALUE: kmalloc:size <- 256
	//DEBUG_VALUE: kmalloc:flags <- 21004480
	stp	x20, x19, [sp, #-32]!   // 16-byte Folded Spill
	stp	x29, x30, [sp, #16]     // 16-byte Folded Spill
	add	x29, sp, #16            // =16
	.cfi_def_cfa w29, 16
	.cfi_offset w30, -8
	.cfi_offset w29, -16
	.cfi_offset w19, -24
	.cfi_offset w20, -32
.Ltmp114:
	//DEBUG_VALUE: index <- 8
	.loc	149 539 5 prologue_end  // kernel/include/linux/slab.h:539:5
	adrp	x8, kmalloc_caches+64
	ldr	x0, [x8, :lo12:kmalloc_caches+64]
	.loc	149 538 10              // kernel/include/linux/slab.h:538:10
	mov	w1, #32960
	movk	w1, #320, lsl #16
	orr	w2, wzr, #0x100
	bl	kmem_cache_alloc_trace
	mov	x19, x0
.Ltmp115:
	//DEBUG_VALUE: mas_bkops_alloc:bkops <- $x19
	.loc	5 698 6                 // kernel/block/mas_bkops_core.c:698:6
	cbz	x0, .LBB4_2
.Ltmp116:
// %bb.1:
	//DEBUG_VALUE: mas_bkops_alloc:bkops <- $x19
	//DEBUG_VALUE: mas_bkops_alloc:bkops <- $x19
	.loc	5 703 2                 // kernel/block/mas_bkops_core.c:703:2
	adrp	x10, __ufs_bkops_idle_work_func
	mov	x8, #68719476704
	mov	x20, x19
	add	x9, x19, #40            // =40
.Ltmp117:
	//DEBUG_VALUE: __write_once_size:res <- undef
	add	x10, x10, :lo12:__ufs_bkops_idle_work_func
.Ltmp118:
	.loc	5 703 2 is_stmt 0       // kernel/block/mas_bkops_core.c:703:2
	add	x0, x19, #64            // =64
	orr	w1, wzr, #0x200000
	mov	x2, xzr
	mov	x3, xzr
.Ltmp119:
	.loc	5 703 2                 // kernel/block/mas_bkops_core.c:703:2
	str	x8, [x20, #32]!
.Ltmp120:
	//DEBUG_VALUE: __write_once_size:p <- $x9
	//DEBUG_VALUE: __write_once_size:size <- 8
	//DEBUG_VALUE: INIT_LIST_HEAD:list <- $x9
	.file	152 "/mnt/disk/jenkins/ci/workspace/chipset_pipeline_release/opensource/component_code/vendor/huawei/extra/build/build_script/kirin_kernel_release/kernel/include/linux/compiler.h"
	.loc	152 210 31 is_stmt 1    // kernel/include/linux/compiler.h:210:31
	str	x9, [x19, #40]
.Ltmp121:
	.file	153 "/mnt/disk/jenkins/ci/workspace/chipset_pipeline_release/opensource/component_code/vendor/huawei/extra/build/build_script/kirin_kernel_release/kernel/include/linux/list.h"
	.loc	153 29 13               // kernel/include/linux/list.h:29:13
	stp	x9, x10, [x19, #48]
.Ltmp122:
	.loc	5 703 2                 // kernel/block/mas_bkops_core.c:703:2
	bl	init_timer_key
.Ltmp123:
	adrp	x8, delayed_work_timer_fn
	add	x8, x8, :lo12:delayed_work_timer_fn
	mov	w9, #1000
	mov	w10, #3600
	orr	w11, wzr, #0x20000000
	stp	x8, x20, [x19, #88]
.Ltmp124:
	.loc	5 704 29                // kernel/block/mas_bkops_core.c:704:29
	str	x9, [x19, #136]
	.loc	5 705 30                // kernel/block/mas_bkops_core.c:705:30
	str	x10, [x19, #208]
	.loc	5 706 33                // kernel/block/mas_bkops_core.c:706:33
	str	x11, [x19, #224]
	.loc	5 707 31                // kernel/block/mas_bkops_core.c:707:31
	str	x11, [x19, #240]
	b	.LBB4_3
.Ltmp125:
.LBB4_2:
	//DEBUG_VALUE: mas_bkops_alloc:bkops <- $x19
	.loc	5 699 3                 // kernel/block/mas_bkops_core.c:699:3
	adrp	x0, .L.str.3
	add	x0, x0, :lo12:.L.str.3
	bl	printk
.Ltmp126:
.LBB4_3:
	//DEBUG_VALUE: mas_bkops_alloc:bkops <- $x19
	.loc	5 710 1                 // kernel/block/mas_bkops_core.c:710:1
	ldp	x29, x30, [sp, #16]     // 16-byte Folded Reload
	mov	x0, x19
	ldp	x20, x19, [sp], #32     // 16-byte Folded Reload
.Ltmp127:
	ret
.Ltmp128:
.Lfunc_end4:
	.size	mas_bkops_alloc, .Lfunc_end4-mas_bkops_alloc
	.cfi_endproc
                                        // -- End function
	.section	.text.mas_bkops_manual_gc_proc_show,"ax",@progbits
	.hidden	mas_bkops_manual_gc_proc_show // -- Begin function mas_bkops_manual_gc_proc_show
	.globl	mas_bkops_manual_gc_proc_show
	.p2align	2
	.type	mas_bkops_manual_gc_proc_show,@function
mas_bkops_manual_gc_proc_show:          // @mas_bkops_manual_gc_proc_show
.Lfunc_begin5:
	.loc	5 713 0                 // kernel/block/mas_bkops_core.c:713:0
	.cfi_startproc
// %bb.0:
	//DEBUG_VALUE: mas_bkops_manual_gc_proc_show:m <- $x0
	//DEBUG_VALUE: mas_bkops_manual_gc_proc_show:v <- $x1
	stp	x29, x30, [sp, #-16]!   // 16-byte Folded Spill
	mov	x29, sp
	.cfi_def_cfa w29, 16
	.cfi_offset w30, -8
	.cfi_offset w29, -16
.Ltmp129:
	.loc	5 714 24 prologue_end   // kernel/block/mas_bkops_core.c:714:24
	adrp	x8, user_manual_gc
	ldrb	w2, [x8, :lo12:user_manual_gc]
	//DEBUG_VALUE: mas_bkops_manual_gc_proc_show:m <- $x0
	.loc	5 714 2 is_stmt 0       // kernel/block/mas_bkops_core.c:714:2
	adrp	x1, .L.str.4
.Ltmp130:
	add	x1, x1, :lo12:.L.str.4
	//DEBUG_VALUE: mas_bkops_manual_gc_proc_show:m <- $x0
	bl	seq_printf
.Ltmp131:
	.loc	5 716 2 is_stmt 1       // kernel/block/mas_bkops_core.c:716:2
	mov	w0, wzr
	ldp	x29, x30, [sp], #16     // 16-byte Folded Reload
	ret
.Ltmp132:
.Lfunc_end5:
	.size	mas_bkops_manual_gc_proc_show, .Lfunc_end5-mas_bkops_manual_gc_proc_show
	.cfi_endproc
                                        // -- End function
	.section	.text.mas_bkops_manual_gc_proc_open,"ax",@progbits
	.hidden	mas_bkops_manual_gc_proc_open // -- Begin function mas_bkops_manual_gc_proc_open
	.globl	mas_bkops_manual_gc_proc_open
	.p2align	2
	.type	mas_bkops_manual_gc_proc_open,@function
mas_bkops_manual_gc_proc_open:          // @mas_bkops_manual_gc_proc_open
.Lfunc_begin6:
	.loc	5 721 0                 // kernel/block/mas_bkops_core.c:721:0
	.cfi_startproc
// %bb.0:
	//DEBUG_VALUE: mas_bkops_manual_gc_proc_open:p_inode <- $x0
	//DEBUG_VALUE: mas_bkops_manual_gc_proc_open:p_file <- $x1
	stp	x29, x30, [sp, #-16]!   // 16-byte Folded Spill
	mov	x29, sp
	.cfi_def_cfa w29, 16
	.cfi_offset w30, -8
	.cfi_offset w29, -16
	mov	x0, x1
.Ltmp133:
	//DEBUG_VALUE: mas_bkops_manual_gc_proc_open:p_file <- $x0
	.loc	5 722 9 prologue_end    // kernel/block/mas_bkops_core.c:722:9
	adrp	x1, __cfi_mas_bkops_manual_gc_proc_show
	add	x1, x1, :lo12:__cfi_mas_bkops_manual_gc_proc_show
	//DEBUG_VALUE: mas_bkops_manual_gc_proc_open:p_file <- $x0
	mov	x2, xzr
	bl	single_open
.Ltmp134:
	.loc	5 722 2 is_stmt 0       // kernel/block/mas_bkops_core.c:722:2
	ldp	x29, x30, [sp], #16     // 16-byte Folded Reload
	ret
.Ltmp135:
.Lfunc_end6:
	.size	mas_bkops_manual_gc_proc_open, .Lfunc_end6-mas_bkops_manual_gc_proc_open
	.cfi_endproc
                                        // -- End function
	.section	.text.mas_bkops_manual_gc_proc_write,"ax",@progbits
	.hidden	mas_bkops_manual_gc_proc_write // -- Begin function mas_bkops_manual_gc_proc_write
	.globl	mas_bkops_manual_gc_proc_write
	.p2align	2
	.type	mas_bkops_manual_gc_proc_write,@function
mas_bkops_manual_gc_proc_write:         // @mas_bkops_manual_gc_proc_write
.Lfunc_begin7:
	.loc	5 728 0 is_stmt 1       // kernel/block/mas_bkops_core.c:728:0
	.cfi_startproc
// %bb.0:
	//DEBUG_VALUE: mas_bkops_manual_gc_proc_write:p_file <- $x0
	//DEBUG_VALUE: mas_bkops_manual_gc_proc_write:userbuf <- $x1
	//DEBUG_VALUE: mas_bkops_manual_gc_proc_write:count <- $x2
	//DEBUG_VALUE: mas_bkops_manual_gc_proc_write:ppos <- $x3
	sub	sp, sp, #48             // =48
	str	x19, [sp, #16]          // 8-byte Folded Spill
	stp	x29, x30, [sp, #32]     // 16-byte Folded Spill
	add	x29, sp, #32            // =32
	.cfi_def_cfa w29, 16
	.cfi_offset w30, -8
	.cfi_offset w29, -16
	.cfi_offset w19, -32
	adrp	x8, __stack_chk_guard
	ldr	x8, [x8, :lo12:__stack_chk_guard]
	mov	x0, #-22
.Ltmp136:
	//DEBUG_VALUE: mas_bkops_manual_gc_proc_write:buf <- [DW_OP_plus_uconst 4, DW_OP_deref] $sp
	//DEBUG_VALUE: mas_bkops_manual_gc_proc_write:userbuf <- $x1
	str	x8, [sp, #8]
.Ltmp137:
	.loc	5 731 13 prologue_end   // kernel/block/mas_bkops_core.c:731:13
	cbz	x1, .LBB7_7
.Ltmp138:
// %bb.1:
	//DEBUG_VALUE: mas_bkops_manual_gc_proc_write:buf <- [DW_OP_plus_uconst 4, DW_OP_deref] $sp
	//DEBUG_VALUE: mas_bkops_manual_gc_proc_write:ppos <- $x3
	//DEBUG_VALUE: mas_bkops_manual_gc_proc_write:count <- $x2
	//DEBUG_VALUE: mas_bkops_manual_gc_proc_write:userbuf <- $x1
	.loc	5 0 13 is_stmt 0        // kernel/block/mas_bkops_core.c:0:13
	mov	x19, x2
.Ltmp139:
	//DEBUG_VALUE: mas_bkops_manual_gc_proc_write:count <- $x19
	.loc	5 731 13                // kernel/block/mas_bkops_core.c:731:13
	cbz	x2, .LBB7_7
.Ltmp140:
// %bb.2:
	//DEBUG_VALUE: mas_bkops_manual_gc_proc_write:count <- $x19
	//DEBUG_VALUE: mas_bkops_manual_gc_proc_write:buf <- [DW_OP_plus_uconst 4, DW_OP_deref] $sp
	//DEBUG_VALUE: mas_bkops_manual_gc_proc_write:ppos <- $x3
	//DEBUG_VALUE: mas_bkops_manual_gc_proc_write:userbuf <- $x1
	//DEBUG_VALUE: mas_bkops_manual_gc_proc_write:buf <- [DW_OP_plus_uconst 4, DW_OP_deref] $sp
	//DEBUG_VALUE: copy_from_user:to <- [DW_OP_plus_uconst 4] $sp
	//DEBUG_VALUE: copy_from_user:from <- $x1
	//DEBUG_VALUE: copy_from_user:n <- 1
	//DEBUG_VALUE: _copy_from_user:to <- [DW_OP_plus_uconst 4] $sp
	//DEBUG_VALUE: _copy_from_user:from <- $x1
	//DEBUG_VALUE: _copy_from_user:n <- 1
	//DEBUG_VALUE: _copy_from_user:res <- 1
	//DEBUG_VALUE: __range_ok:addr <- $x1
	//DEBUG_VALUE: __range_ok:size <- 1
	.file	154 "/mnt/disk/jenkins/ci/workspace/chipset_pipeline_release/opensource/component_code/vendor/huawei/extra/build/build_script/kirin_kernel_release/kernel/arch/arm64/include/asm/current.h"
	.loc	154 19 2 is_stmt 1      // kernel/arch/arm64/include/asm/current.h:19:2
	//APP
	mrs x8, sp_el0
	//NO_APP
.Ltmp141:
	//DEBUG_VALUE: get_current:sp_el0 <- $x8
	//DEBUG_VALUE: get_current:sp_el0 <- $x8
	.file	155 "/mnt/disk/jenkins/ci/workspace/chipset_pipeline_release/opensource/component_code/vendor/huawei/extra/build/build_script/kirin_kernel_release/kernel/arch/arm64/include/asm/uaccess.h"
	.loc	155 84 24               // kernel/arch/arm64/include/asm/uaccess.h:84:24
	ldr	x9, [x8, #8]
.Ltmp142:
	//DEBUG_VALUE: __range_ok:limit <- $x9
	.loc	155 87 2                // kernel/arch/arm64/include/asm/uaccess.h:87:2
	mov	x10, x1
	//APP
		adds	x10, x10, #1
	csel	x9, xzr, x9, hi
	csinv	x10, x10, xzr, cc
	sbcs	xzr, x10, x9
	cset	x10, ls

	//NO_APP
.Ltmp143:
	//DEBUG_VALUE: __range_ok:limit <- undef
	//DEBUG_VALUE: __range_ok:addr <- $x10
	.file	156 "/mnt/disk/jenkins/ci/workspace/chipset_pipeline_release/opensource/component_code/vendor/huawei/extra/build/build_script/kirin_kernel_release/kernel/include/linux/uaccess.h"
	.loc	156 114 6               // kernel/include/linux/uaccess.h:114:6
	cbz	x10, .LBB7_9
.Ltmp144:
// %bb.3:
	//DEBUG_VALUE: _copy_from_user:from <- $x1
	//DEBUG_VALUE: _copy_from_user:to <- [DW_OP_plus_uconst 4] $sp
	//DEBUG_VALUE: copy_from_user:from <- $x1
	//DEBUG_VALUE: copy_from_user:to <- [DW_OP_plus_uconst 4] $sp
	//DEBUG_VALUE: mas_bkops_manual_gc_proc_write:count <- $x19
	//DEBUG_VALUE: mas_bkops_manual_gc_proc_write:buf <- [DW_OP_plus_uconst 4, DW_OP_deref] $sp
	//DEBUG_VALUE: mas_bkops_manual_gc_proc_write:ppos <- $x3
	//DEBUG_VALUE: mas_bkops_manual_gc_proc_write:userbuf <- $x1
	//DEBUG_VALUE: __uaccess_mask_ptr:ptr <- $x1
	.loc	155 238 20              // kernel/arch/arm64/include/asm/uaccess.h:238:20
	ldr	x9, [x8, #8]
	.loc	155 234 2               // kernel/arch/arm64/include/asm/uaccess.h:234:2
	//APP
		bics	xzr, x1, x9
	csel	x8, x1, xzr, eq

	//NO_APP
.Ltmp145:
	//DEBUG_VALUE: __uaccess_mask_ptr:safe_ptr <- $x8
	.loc	155 241 2               // kernel/arch/arm64/include/asm/uaccess.h:241:2
	//APP
	hint #20
	//NO_APP
.Ltmp146:
	.loc	156 116 9               // kernel/include/linux/uaccess.h:116:9
	add	x0, sp, #4              // =4
	orr	w2, wzr, #0x1
	mov	x1, x8
.Ltmp147:
	bl	__arch_copy_from_user
.Ltmp148:
	.loc	156 118 6               // kernel/include/linux/uaccess.h:118:6
	cbnz	x0, .LBB7_10
.Ltmp149:
// %bb.4:
	//DEBUG_VALUE: copy_from_user:to <- [DW_OP_plus_uconst 4] $sp
	//DEBUG_VALUE: mas_bkops_manual_gc_proc_write:count <- $x19
	//DEBUG_VALUE: mas_bkops_manual_gc_proc_write:buf <- [DW_OP_plus_uconst 4, DW_OP_deref] $sp
	//DEBUG_VALUE: copy_from_user:n <- 0
	.loc	5 737 6                 // kernel/block/mas_bkops_core.c:737:6
	ldrb	w8, [sp, #4]
.Ltmp150:
	//DEBUG_VALUE: mas_bkops_manual_gc_proc_write:buf <- $w8
	.loc	5 737 17 is_stmt 0      // kernel/block/mas_bkops_core.c:737:17
	sub	w8, w8, #48             // =48
.Ltmp151:
	cmp	w8, #2                  // =2
	b.hs	.LBB7_6
.Ltmp152:
// %bb.5:
	//DEBUG_VALUE: mas_bkops_manual_gc_proc_write:count <- $x19
	.loc	5 742 17 is_stmt 1      // kernel/block/mas_bkops_core.c:742:17
	adrp	x9, user_manual_gc
	.loc	5 0 0 is_stmt 0         // kernel/block/mas_bkops_core.c:0:0
	mov	x0, x19
	.loc	5 742 17                // kernel/block/mas_bkops_core.c:742:17
	strb	w8, [x9, :lo12:user_manual_gc]
	b	.LBB7_7
.Ltmp153:
.LBB7_6:
	//DEBUG_VALUE: mas_bkops_manual_gc_proc_write:count <- $x19
	.loc	5 738 3 is_stmt 1       // kernel/block/mas_bkops_core.c:738:3
	adrp	x0, .L.str.5
	adrp	x1, .L__func__.mas_bkops_manual_gc_proc_write
	add	x0, x0, :lo12:.L.str.5
	add	x1, x1, :lo12:.L__func__.mas_bkops_manual_gc_proc_write
	mov	w2, #738
	bl	printk
	mov	x0, #-22
.Ltmp154:
.LBB7_7:
	//DEBUG_VALUE: mas_bkops_manual_gc_proc_write:buf <- [DW_OP_plus_uconst 4, DW_OP_deref] $sp
	.loc	5 0 3 is_stmt 0         // kernel/block/mas_bkops_core.c:0:3
	adrp	x9, __stack_chk_guard
	ldr	x8, [sp, #8]
	ldr	x9, [x9, :lo12:__stack_chk_guard]
	cmp	x9, x8
	b.ne	.LBB7_12
.Ltmp155:
// %bb.8:
	//DEBUG_VALUE: mas_bkops_manual_gc_proc_write:buf <- [DW_OP_plus_uconst 4, DW_OP_deref] $sp
	.loc	5 745 1 is_stmt 1       // kernel/block/mas_bkops_core.c:745:1
	ldp	x29, x30, [sp, #32]     // 16-byte Folded Reload
	ldr	x19, [sp, #16]          // 8-byte Folded Reload
	add	sp, sp, #48             // =48
.Ltmp156:
	ret
.LBB7_9:
.Ltmp157:
	//DEBUG_VALUE: __range_ok:addr <- $x10
	//DEBUG_VALUE: get_current:sp_el0 <- $x8
	//DEBUG_VALUE: get_current:sp_el0 <- $x8
	//DEBUG_VALUE: _copy_from_user:from <- $x1
	//DEBUG_VALUE: _copy_from_user:to <- [DW_OP_plus_uconst 4] $sp
	//DEBUG_VALUE: copy_from_user:from <- $x1
	//DEBUG_VALUE: copy_from_user:to <- [DW_OP_plus_uconst 4] $sp
	//DEBUG_VALUE: mas_bkops_manual_gc_proc_write:count <- $x19
	//DEBUG_VALUE: mas_bkops_manual_gc_proc_write:buf <- [DW_OP_plus_uconst 4, DW_OP_deref] $sp
	//DEBUG_VALUE: mas_bkops_manual_gc_proc_write:ppos <- $x3
	//DEBUG_VALUE: mas_bkops_manual_gc_proc_write:userbuf <- $x1
	.loc	5 0 1 is_stmt 0         // kernel/block/mas_bkops_core.c:0:1
	orr	w2, wzr, #0x1
	b	.LBB7_11
.Ltmp158:
.LBB7_10:
	//DEBUG_VALUE: _copy_from_user:to <- [DW_OP_plus_uconst 4] $sp
	//DEBUG_VALUE: copy_from_user:to <- [DW_OP_plus_uconst 4] $sp
	//DEBUG_VALUE: mas_bkops_manual_gc_proc_write:count <- $x19
	//DEBUG_VALUE: mas_bkops_manual_gc_proc_write:buf <- [DW_OP_plus_uconst 4, DW_OP_deref] $sp
	mov	x2, x0
.Ltmp159:
	//DEBUG_VALUE: _copy_from_user:res <- $x2
.LBB7_11:
	//DEBUG_VALUE: _copy_from_user:to <- [DW_OP_plus_uconst 4] $sp
	//DEBUG_VALUE: copy_from_user:to <- [DW_OP_plus_uconst 4] $sp
	//DEBUG_VALUE: mas_bkops_manual_gc_proc_write:count <- $x19
	//DEBUG_VALUE: mas_bkops_manual_gc_proc_write:buf <- [DW_OP_plus_uconst 4, DW_OP_deref] $sp
	orr	w8, wzr, #0x1
.Ltmp160:
	.loc	156 119 18 is_stmt 1    // kernel/include/linux/uaccess.h:119:18
	sub	x8, x8, x2
	add	x9, sp, #4              // =4
	.loc	156 119 13 is_stmt 0    // kernel/include/linux/uaccess.h:119:13
	add	x0, x9, x8
	.loc	156 119 3               // kernel/include/linux/uaccess.h:119:3
	mov	w1, wzr
	bl	memset
	mov	x0, #-14
	b	.LBB7_7
.Ltmp161:
.LBB7_12:
	//DEBUG_VALUE: mas_bkops_manual_gc_proc_write:buf <- [DW_OP_plus_uconst 4, DW_OP_deref] $sp
	.loc	156 0 3                 // kernel/include/linux/uaccess.h:0:3
	bl	__stack_chk_fail
.Lfunc_end7:
	.size	mas_bkops_manual_gc_proc_write, .Lfunc_end7-mas_bkops_manual_gc_proc_write
	.cfi_endproc
                                        // -- End function
	.section	.text.mas_bkops_status_proc_show,"ax",@progbits
	.hidden	mas_bkops_status_proc_show // -- Begin function mas_bkops_status_proc_show
	.globl	mas_bkops_status_proc_show
	.p2align	2
	.type	mas_bkops_status_proc_show,@function
mas_bkops_status_proc_show:             // @mas_bkops_status_proc_show
.Lfunc_begin8:
	.loc	5 756 0 is_stmt 1       // kernel/block/mas_bkops_core.c:756:0
	.cfi_startproc
// %bb.0:
	//DEBUG_VALUE: mas_bkops_status_proc_show:m <- $x0
	//DEBUG_VALUE: mas_bkops_status_proc_show:v <- $x1
	sub	sp, sp, #64             // =64
	str	x21, [sp, #16]          // 8-byte Folded Spill
	stp	x20, x19, [sp, #32]     // 16-byte Folded Spill
	stp	x29, x30, [sp, #48]     // 16-byte Folded Spill
	add	x29, sp, #48            // =48
	.cfi_def_cfa w29, 16
	.cfi_offset w30, -8
	.cfi_offset w29, -16
	.cfi_offset w19, -24
	.cfi_offset w20, -32
	.cfi_offset w21, -48
	adrp	x8, __stack_chk_guard
	ldr	x8, [x8, :lo12:__stack_chk_guard]
	mov	x19, x0
	str	x8, [sp, #8]
.Ltmp162:
	//DEBUG_VALUE: mas_bkops_status_proc_show:status <- 0
	//DEBUG_VALUE: mas_bkops_status_proc_show:m <- $x19
	.loc	5 757 6 prologue_end    // kernel/block/mas_bkops_core.c:757:6
	str	wzr, [sp, #4]
	.loc	5 760 27                // kernel/block/mas_bkops_core.c:760:27
	ldr	x20, [x0, #152]
.Ltmp163:
	//DEBUG_VALUE: mas_bkops_query:ret <- 0
	//DEBUG_VALUE: mas_bkops_query:bkops_status <- [DW_OP_plus_uconst 4] $sp
	//DEBUG_VALUE: mas_bkops_status_proc_show:status <- [DW_OP_plus_uconst 4, DW_OP_deref] $sp
	//DEBUG_VALUE: mas_bkops_query:bkops <- $x20
	.loc	5 106 2                 // kernel/block/mas_bkops_core.c:106:2
	adrp	x0, bkops_lock
	add	x0, x0, :lo12:bkops_lock
	.loc	5 99 41                 // kernel/block/mas_bkops_core.c:99:41
	ldr	x21, [x20, #8]
.Ltmp164:
	//DEBUG_VALUE: mas_bkops_query:bkops_ops_p <- $x21
	.loc	5 106 2                 // kernel/block/mas_bkops_core.c:106:2
	bl	mutex_lock
.Ltmp165:
	.loc	5 107 7                 // kernel/block/mas_bkops_core.c:107:7
	adrp	x8, bkops_enabled
	ldrb	w8, [x8, :lo12:bkops_enabled]
.Ltmp166:
	.loc	5 107 6 is_stmt 0       // kernel/block/mas_bkops_core.c:107:6
	cmp	w8, #1                  // =1
	b.ne	.LBB8_2
.Ltmp167:
// %bb.1:
	//DEBUG_VALUE: mas_bkops_query:bkops_ops_p <- $x21
	//DEBUG_VALUE: mas_bkops_query:bkops <- $x20
	//DEBUG_VALUE: mas_bkops_status_proc_show:status <- [DW_OP_plus_uconst 4, DW_OP_deref] $sp
	//DEBUG_VALUE: mas_bkops_query:bkops_status <- [DW_OP_plus_uconst 4] $sp
	//DEBUG_VALUE: mas_bkops_status_proc_show:m <- $x19
	//DEBUG_LABEL: mas_bkops_query:out
	.loc	5 140 2 is_stmt 1       // kernel/block/mas_bkops_core.c:140:2
	adrp	x0, bkops_lock
	add	x0, x0, :lo12:bkops_lock
	bl	mutex_unlock
	b	.LBB8_7
.Ltmp168:
.LBB8_2:
	//DEBUG_VALUE: mas_bkops_query:bkops_ops_p <- $x21
	//DEBUG_VALUE: mas_bkops_query:bkops <- $x20
	//DEBUG_VALUE: mas_bkops_status_proc_show:status <- [DW_OP_plus_uconst 4, DW_OP_deref] $sp
	//DEBUG_VALUE: mas_bkops_query:bkops_status <- [DW_OP_plus_uconst 4] $sp
	//DEBUG_VALUE: mas_bkops_status_proc_show:m <- $x19
	.loc	5 119 21                // kernel/block/mas_bkops_core.c:119:21
	ldr	x8, [x21, #8]
	.loc	5 120 10                // kernel/block/mas_bkops_core.c:120:10
	ldr	x0, [x20, #16]
	.loc	5 119 8                 // kernel/block/mas_bkops_core.c:119:8
	add	x1, sp, #4              // =4
	blr	x8
.Ltmp169:
	.loc	5 121 6                 // kernel/block/mas_bkops_core.c:121:6
	adrp	x8, user_manual_gc
	ldrb	w9, [x8, :lo12:user_manual_gc]
.Ltmp170:
	.loc	5 119 8                 // kernel/block/mas_bkops_core.c:119:8
	mov	w20, w0
.Ltmp171:
	//DEBUG_VALUE: mas_bkops_status_proc_show:ret <- $w20
	//DEBUG_VALUE: mas_bkops_query:ret <- $w20
	.loc	5 121 21                // kernel/block/mas_bkops_core.c:121:21
	cbz	w9, .LBB8_5
.Ltmp172:
// %bb.3:
	//DEBUG_VALUE: mas_bkops_query:ret <- $w20
	//DEBUG_VALUE: mas_bkops_status_proc_show:ret <- $w20
	//DEBUG_VALUE: mas_bkops_query:bkops_ops_p <- $x21
	//DEBUG_VALUE: mas_bkops_status_proc_show:status <- [DW_OP_plus_uconst 4, DW_OP_deref] $sp
	//DEBUG_VALUE: mas_bkops_query:bkops_status <- [DW_OP_plus_uconst 4] $sp
	//DEBUG_VALUE: mas_bkops_status_proc_show:m <- $x19
	.loc	5 0 0 is_stmt 0         // kernel/block/mas_bkops_core.c:0:0
	ldr	w9, [sp, #4]
	.loc	5 121 21                // kernel/block/mas_bkops_core.c:121:21
	cbnz	w9, .LBB8_5
.Ltmp173:
// %bb.4:
	//DEBUG_VALUE: mas_bkops_query:ret <- $w20
	//DEBUG_VALUE: mas_bkops_status_proc_show:ret <- $w20
	//DEBUG_VALUE: mas_bkops_query:bkops_ops_p <- $x21
	//DEBUG_VALUE: mas_bkops_status_proc_show:status <- [DW_OP_plus_uconst 4, DW_OP_deref] $sp
	//DEBUG_VALUE: mas_bkops_query:bkops_status <- [DW_OP_plus_uconst 4] $sp
	//DEBUG_VALUE: mas_bkops_status_proc_show:m <- $x19
	.loc	5 122 18 is_stmt 1      // kernel/block/mas_bkops_core.c:122:18
	strb	wzr, [x8, :lo12:user_manual_gc]
.Ltmp174:
.LBB8_5:
	//DEBUG_VALUE: mas_bkops_query:ret <- $w20
	//DEBUG_VALUE: mas_bkops_status_proc_show:ret <- $w20
	//DEBUG_VALUE: mas_bkops_query:bkops_ops_p <- $x21
	//DEBUG_VALUE: mas_bkops_status_proc_show:status <- [DW_OP_plus_uconst 4, DW_OP_deref] $sp
	//DEBUG_VALUE: mas_bkops_query:bkops_status <- [DW_OP_plus_uconst 4] $sp
	//DEBUG_VALUE: mas_bkops_status_proc_show:m <- $x19
	//DEBUG_LABEL: mas_bkops_query:out
	.loc	5 140 2                 // kernel/block/mas_bkops_core.c:140:2
	adrp	x0, bkops_lock
	add	x0, x0, :lo12:bkops_lock
	bl	mutex_unlock
.Ltmp175:
	.loc	5 761 6                 // kernel/block/mas_bkops_core.c:761:6
	cbz	w20, .LBB8_7
.Ltmp176:
// %bb.6:
	//DEBUG_VALUE: mas_bkops_status_proc_show:ret <- $w20
	//DEBUG_VALUE: mas_bkops_status_proc_show:status <- [DW_OP_plus_uconst 4, DW_OP_deref] $sp
	//DEBUG_VALUE: mas_bkops_status_proc_show:m <- $x19
	.loc	5 762 3                 // kernel/block/mas_bkops_core.c:762:3
	adrp	x0, .L.str.6
	adrp	x1, .L__func__.mas_bkops_status_proc_show
	add	x0, x0, :lo12:.L.str.6
	add	x1, x1, :lo12:.L__func__.mas_bkops_status_proc_show
	mov	w2, w20
	bl	printk
	b	.LBB8_8
.Ltmp177:
.LBB8_7:
	//DEBUG_VALUE: mas_bkops_status_proc_show:status <- [DW_OP_plus_uconst 4, DW_OP_deref] $sp
	//DEBUG_VALUE: mas_bkops_status_proc_show:m <- $x19
	.loc	5 766 24                // kernel/block/mas_bkops_core.c:766:24
	ldr	w2, [sp, #4]
.Ltmp178:
	//DEBUG_VALUE: mas_bkops_status_proc_show:status <- $w2
	.loc	5 766 2 is_stmt 0       // kernel/block/mas_bkops_core.c:766:2
	adrp	x1, .L.str.7
	add	x1, x1, :lo12:.L.str.7
	mov	x0, x19
	bl	seq_printf
.Ltmp179:
	.loc	5 0 0                   // kernel/block/mas_bkops_core.c:0:0
	mov	w20, wzr
.Ltmp180:
.LBB8_8:
	//DEBUG_VALUE: mas_bkops_status_proc_show:m <- $x19
	adrp	x9, __stack_chk_guard
	ldr	x8, [sp, #8]
	ldr	x9, [x9, :lo12:__stack_chk_guard]
	cmp	x9, x8
	b.ne	.LBB8_10
.Ltmp181:
// %bb.9:
	//DEBUG_VALUE: mas_bkops_status_proc_show:m <- $x19
	.loc	5 769 1 is_stmt 1       // kernel/block/mas_bkops_core.c:769:1
	mov	w0, w20
	ldp	x29, x30, [sp, #48]     // 16-byte Folded Reload
	ldp	x20, x19, [sp, #32]     // 16-byte Folded Reload
.Ltmp182:
	ldr	x21, [sp, #16]          // 8-byte Folded Reload
	add	sp, sp, #64             // =64
	ret
.Ltmp183:
.LBB8_10:
	//DEBUG_VALUE: mas_bkops_status_proc_show:m <- $x19
	.loc	5 0 1 is_stmt 0         // kernel/block/mas_bkops_core.c:0:1
	bl	__stack_chk_fail
.Lfunc_end8:
	.size	mas_bkops_status_proc_show, .Lfunc_end8-mas_bkops_status_proc_show
	.cfi_endproc
                                        // -- End function
	.section	.text.mas_bkops_status_proc_open,"ax",@progbits
	.hidden	mas_bkops_status_proc_open // -- Begin function mas_bkops_status_proc_open
	.globl	mas_bkops_status_proc_open
	.p2align	2
	.type	mas_bkops_status_proc_open,@function
mas_bkops_status_proc_open:             // @mas_bkops_status_proc_open
.Lfunc_begin9:
	.loc	5 773 0 is_stmt 1       // kernel/block/mas_bkops_core.c:773:0
	.cfi_startproc
// %bb.0:
	//DEBUG_VALUE: mas_bkops_status_proc_open:p_inode <- $x0
	//DEBUG_VALUE: mas_bkops_status_proc_open:p_file <- $x1
	str	x19, [sp, #-32]!        // 8-byte Folded Spill
	stp	x29, x30, [sp, #16]     // 16-byte Folded Spill
	add	x29, sp, #16            // =16
	.cfi_def_cfa w29, 16
	.cfi_offset w30, -8
	.cfi_offset w29, -16
	.cfi_offset w19, -32
	mov	x19, x1
.Ltmp184:
	//DEBUG_VALUE: mas_bkops_status_proc_open:p_file <- $x19
	//DEBUG_VALUE: mas_bkops_status_proc_open:p_inode <- $x0
	//DEBUG_VALUE: mas_bkops_status_proc_open:p_inode <- $x0
	.loc	5 775 37 prologue_end   // kernel/block/mas_bkops_core.c:775:37
	bl	PDE_DATA
.Ltmp185:
	.loc	5 774 9                 // kernel/block/mas_bkops_core.c:774:9
	adrp	x1, __cfi_mas_bkops_status_proc_show
	.loc	5 775 37                // kernel/block/mas_bkops_core.c:775:37
	mov	x2, x0
	.loc	5 774 9                 // kernel/block/mas_bkops_core.c:774:9
	add	x1, x1, :lo12:__cfi_mas_bkops_status_proc_show
	mov	x0, x19
.Ltmp186:
	//DEBUG_VALUE: mas_bkops_status_proc_open:p_file <- $x0
	bl	single_open
.Ltmp187:
	.loc	5 774 2 is_stmt 0       // kernel/block/mas_bkops_core.c:774:2
	ldp	x29, x30, [sp, #16]     // 16-byte Folded Reload
	ldr	x19, [sp], #32          // 8-byte Folded Reload
	ret
.Ltmp188:
.Lfunc_end9:
	.size	mas_bkops_status_proc_open, .Lfunc_end9-mas_bkops_status_proc_open
	.cfi_endproc
                                        // -- End function
	.section	.text.mas_bkops_enable,"ax",@progbits
	.hidden	mas_bkops_enable        // -- Begin function mas_bkops_enable
	.globl	mas_bkops_enable
	.p2align	2
	.type	mas_bkops_enable,@function
mas_bkops_enable:                       // @mas_bkops_enable
.Lfunc_begin10:
	.loc	5 802 0 is_stmt 1       // kernel/block/mas_bkops_core.c:802:0
	.cfi_startproc
// %bb.0:
	//DEBUG_VALUE: mas_bkops_enable:q <- $x0
	//DEBUG_VALUE: mas_bkops_enable:bkops <- $x1
	//DEBUG_VALUE: mas_bkops_enable:pdir <- $x2
	stp	x24, x23, [sp, #-64]!   // 16-byte Folded Spill
	stp	x22, x21, [sp, #16]     // 16-byte Folded Spill
	stp	x20, x19, [sp, #32]     // 16-byte Folded Spill
	stp	x29, x30, [sp, #48]     // 16-byte Folded Spill
	add	x29, sp, #48            // =48
	.cfi_def_cfa w29, 16
	.cfi_offset w30, -8
	.cfi_offset w29, -16
	.cfi_offset w19, -24
	.cfi_offset w20, -32
	.cfi_offset w21, -40
	.cfi_offset w22, -48
	.cfi_offset w23, -56
	.cfi_offset w24, -64
	mov	x21, x0
	mov	w0, #-22
.Ltmp189:
	//DEBUG_VALUE: mas_bkops_enable:blk_lld <- 0
	//DEBUG_VALUE: mas_bkops_enable:event_node <- 0
	//DEBUG_VALUE: mas_bkops_enable:q <- $x21
	.loc	5 806 9 prologue_end    // kernel/block/mas_bkops_core.c:806:9
	cbz	x21, .LBB10_20
.Ltmp190:
// %bb.1:
	//DEBUG_VALUE: mas_bkops_enable:q <- $x21
	//DEBUG_VALUE: mas_bkops_enable:pdir <- $x2
	//DEBUG_VALUE: mas_bkops_enable:bkops <- $x1
	.loc	5 0 9 is_stmt 0         // kernel/block/mas_bkops_core.c:0:9
	mov	x19, x1
.Ltmp191:
	//DEBUG_VALUE: mas_bkops_enable:bkops <- $x19
	.loc	5 806 9                 // kernel/block/mas_bkops_core.c:806:9
	cbz	x1, .LBB10_20
.Ltmp192:
// %bb.2:
	//DEBUG_VALUE: mas_bkops_enable:bkops <- $x19
	//DEBUG_VALUE: mas_bkops_enable:q <- $x21
	//DEBUG_VALUE: mas_bkops_enable:pdir <- $x2
	.loc	5 0 9                   // kernel/block/mas_bkops_core.c:0:9
	mov	x22, x2
.Ltmp193:
	//DEBUG_VALUE: mas_bkops_enable:pdir <- $x22
	.loc	5 806 9                 // kernel/block/mas_bkops_core.c:806:9
	cbz	x2, .LBB10_20
.Ltmp194:
// %bb.3:
	//DEBUG_VALUE: mas_bkops_enable:pdir <- $x22
	//DEBUG_VALUE: mas_bkops_enable:bkops <- $x19
	//DEBUG_VALUE: mas_bkops_enable:q <- $x21
	.loc	5 810 12 is_stmt 1      // kernel/block/mas_bkops_core.c:810:12
	mov	x0, x21
	bl	mas_blk_get_lld
	.loc	5 811 6                 // kernel/block/mas_bkops_core.c:811:6
	ldrb	w8, [x0, #24]
	tbz	w8, #3, .LBB10_22
.Ltmp195:
// %bb.4:
	//DEBUG_VALUE: mas_bkops_enable:pdir <- $x22
	//DEBUG_VALUE: mas_bkops_enable:bkops <- $x19
	//DEBUG_VALUE: mas_bkops_enable:q <- $x21
	.loc	5 816 13                // kernel/block/mas_bkops_core.c:816:13
	ldr	w8, [x19]
	.loc	5 816 40 is_stmt 0      // kernel/block/mas_bkops_core.c:816:40
	sub	w8, w8, #1              // =1
	cmp	w8, #3                  // =3
	b.lo	.LBB10_6
.Ltmp196:
// %bb.5:
	//DEBUG_VALUE: mas_bkops_enable:pdir <- $x22
	//DEBUG_VALUE: mas_bkops_enable:bkops <- $x19
	//DEBUG_VALUE: mas_bkops_enable:q <- $x21
	.loc	5 818 3 is_stmt 1       // kernel/block/mas_bkops_core.c:818:3
	adrp	x0, .L.str.9
	add	x0, x0, :lo12:.L.str.9
.Ltmp197:
	.loc	5 0 0 is_stmt 0         // kernel/block/mas_bkops_core.c:0:0
	bl	printk
	b	.LBB10_19
.Ltmp198:
.LBB10_6:
	//DEBUG_VALUE: mas_bkops_enable:pdir <- $x22
	//DEBUG_VALUE: mas_bkops_enable:bkops <- $x19
	//DEBUG_VALUE: mas_bkops_enable:q <- $x21
	.loc	5 822 14 is_stmt 1      // kernel/block/mas_bkops_core.c:822:14
	ldr	x8, [x19, #8]
.Ltmp199:
	.loc	5 822 6 is_stmt 0       // kernel/block/mas_bkops_core.c:822:6
	cbz	x8, .LBB10_15
.Ltmp200:
// %bb.7:
	//DEBUG_VALUE: mas_bkops_enable:pdir <- $x22
	//DEBUG_VALUE: mas_bkops_enable:bkops <- $x19
	//DEBUG_VALUE: mas_bkops_enable:q <- $x21
	.loc	5 666 6 is_stmt 1       // kernel/block/mas_bkops_core.c:666:6
	adrp	x24, mas_bkops_inited
	ldrb	w8, [x24, :lo12:mas_bkops_inited]
.Ltmp201:
	.loc	5 0 0 is_stmt 0         // kernel/block/mas_bkops_core.c:0:0
	mov	x20, x0
.Ltmp202:
	//DEBUG_VALUE: mas_bkops_enable:blk_lld <- $x20
	.loc	5 666 6                 // kernel/block/mas_bkops_core.c:666:6
	tbnz	w8, #0, .LBB10_10
.Ltmp203:
// %bb.8:
	//DEBUG_VALUE: mas_bkops_enable:blk_lld <- $x20
	//DEBUG_VALUE: mas_bkops_enable:pdir <- $x22
	//DEBUG_VALUE: mas_bkops_enable:bkops <- $x19
	//DEBUG_VALUE: mas_bkops_enable:q <- $x21
	.loc	5 669 22 is_stmt 1      // kernel/block/mas_bkops_core.c:669:22
	adrp	x0, .L.str.15
	add	x0, x0, :lo12:.L.str.15
	orr	w1, wzr, #0x18
	mov	w2, wzr
	mov	x3, xzr
	mov	x4, xzr
	bl	__alloc_workqueue_key
	.loc	5 669 20 is_stmt 0      // kernel/block/mas_bkops_core.c:669:20
	adrp	x8, bkops_workqueue_g
	str	x0, [x8, :lo12:bkops_workqueue_g]
	.loc	5 671 6 is_stmt 1       // kernel/block/mas_bkops_core.c:671:6
	cbz	x0, .LBB10_18
.Ltmp204:
// %bb.9:
	//DEBUG_VALUE: mas_bkops_enable:blk_lld <- $x20
	//DEBUG_VALUE: mas_bkops_enable:pdir <- $x22
	//DEBUG_VALUE: mas_bkops_enable:bkops <- $x19
	//DEBUG_VALUE: mas_bkops_enable:q <- $x21
	.loc	5 672 3                 // kernel/block/mas_bkops_core.c:672:3
	adrp	x0, bkops_pm_notifier
	add	x0, x0, :lo12:bkops_pm_notifier
	bl	register_pm_notifier
	.loc	5 673 3                 // kernel/block/mas_bkops_core.c:673:3
	adrp	x0, bkops_reboot_notifier
	add	x0, x0, :lo12:bkops_reboot_notifier
	bl	register_reboot_notifier
	orr	w8, wzr, #0x1
	.loc	5 674 20                // kernel/block/mas_bkops_core.c:674:20
	strb	w8, [x24, :lo12:mas_bkops_inited]
.Ltmp205:
.LBB10_10:
	//DEBUG_VALUE: mas_bkops_enable:blk_lld <- $x20
	//DEBUG_VALUE: mas_bkops_enable:pdir <- $x22
	//DEBUG_VALUE: mas_bkops_enable:bkops <- $x19
	//DEBUG_VALUE: mas_bkops_enable:q <- $x21
	.loc	5 833 6                 // kernel/block/mas_bkops_core.c:833:6
	mov	x0, x19
	mov	x1, x22
.Ltmp206:
	.loc	5 0 0 is_stmt 0         // kernel/block/mas_bkops_core.c:0:0
	add	x23, x19, #144          // =144
.Ltmp207:
	//DEBUG_VALUE: mas_bkops_enable:event_node <- $x23
	.loc	5 833 6                 // kernel/block/mas_bkops_core.c:833:6
	bl	mas_bkops_add_debugfs
.Ltmp208:
	.loc	5 833 6                 // kernel/block/mas_bkops_core.c:833:6
	cbz	w0, .LBB10_12
.Ltmp209:
// %bb.11:
	//DEBUG_VALUE: mas_bkops_enable:event_node <- $x23
	//DEBUG_VALUE: mas_bkops_enable:blk_lld <- $x20
	//DEBUG_VALUE: mas_bkops_enable:pdir <- $x22
	//DEBUG_VALUE: mas_bkops_enable:bkops <- $x19
	//DEBUG_VALUE: mas_bkops_enable:q <- $x21
	.loc	5 834 3 is_stmt 1       // kernel/block/mas_bkops_core.c:834:3
	adrp	x0, .L.str.12
	add	x0, x0, :lo12:.L.str.12
	bl	printk
.Ltmp210:
.LBB10_12:
	//DEBUG_VALUE: mas_bkops_enable:event_node <- $x23
	//DEBUG_VALUE: mas_bkops_enable:blk_lld <- $x20
	//DEBUG_VALUE: mas_bkops_enable:pdir <- $x22
	//DEBUG_VALUE: mas_bkops_enable:bkops <- $x19
	//DEBUG_VALUE: mas_bkops_enable:q <- $x21
	.loc	5 837 2                 // kernel/block/mas_bkops_core.c:837:2
	adrp	x1, .L.str.13
	add	x1, x1, :lo12:.L.str.13
	orr	w2, wzr, #0x20
	mov	x0, x23
	.loc	5 836 11                // kernel/block/mas_bkops_core.c:836:11
	str	x21, [x19, #24]
	.loc	5 837 2                 // kernel/block/mas_bkops_core.c:837:2
	bl	strncpy
	.loc	5 840 32                // kernel/block/mas_bkops_core.c:840:32
	adrp	x8, __cfi_bkops_io_busyidle_notify_handler
	add	x8, x8, :lo12:__cfi_bkops_io_busyidle_notify_handler
.Ltmp211:
	.loc	5 842 6                 // kernel/block/mas_bkops_core.c:842:6
	mov	x0, x20
	mov	x1, x23
.Ltmp212:
	.loc	5 839 50                // kernel/block/mas_bkops_core.c:839:50
	strb	wzr, [x19, #175]
	.loc	5 840 32                // kernel/block/mas_bkops_core.c:840:32
	stp	x8, x19, [x19, #176]
.Ltmp213:
	.loc	5 842 6                 // kernel/block/mas_bkops_core.c:842:6
	bl	blk_lld_busyidle_event_subscribe
.Ltmp214:
	.loc	5 842 6 is_stmt 0       // kernel/block/mas_bkops_core.c:842:6
	cbz	w0, .LBB10_16
.Ltmp215:
// %bb.13:
	//DEBUG_VALUE: mas_bkops_enable:event_node <- $x23
	//DEBUG_VALUE: mas_bkops_enable:blk_lld <- $x20
	//DEBUG_VALUE: mas_bkops_enable:pdir <- $x22
	//DEBUG_VALUE: mas_bkops_enable:bkops <- $x19
	//DEBUG_VALUE: mas_bkops_enable:q <- $x21
	//DEBUG_LABEL: mas_bkops_enable:bkops_exit
	.loc	5 683 7 is_stmt 1       // kernel/block/mas_bkops_core.c:683:7
	adrp	x19, bkops_workqueue_g
.Ltmp216:
	ldr	x8, [x19, :lo12:bkops_workqueue_g]
.Ltmp217:
	.loc	5 683 6 is_stmt 0       // kernel/block/mas_bkops_core.c:683:6
	cbz	x8, .LBB10_19
.Ltmp218:
// %bb.14:
	//DEBUG_VALUE: mas_bkops_enable:event_node <- $x23
	//DEBUG_VALUE: mas_bkops_enable:blk_lld <- $x20
	//DEBUG_VALUE: mas_bkops_enable:pdir <- $x22
	//DEBUG_VALUE: mas_bkops_enable:q <- $x21
	.loc	5 687 2 is_stmt 1       // kernel/block/mas_bkops_core.c:687:2
	adrp	x0, bkops_reboot_notifier
	add	x0, x0, :lo12:bkops_reboot_notifier
	.loc	5 686 19                // kernel/block/mas_bkops_core.c:686:19
	strb	wzr, [x24, :lo12:mas_bkops_inited]
	.loc	5 687 2                 // kernel/block/mas_bkops_core.c:687:2
	bl	unregister_reboot_notifier
	.loc	5 688 2                 // kernel/block/mas_bkops_core.c:688:2
	adrp	x0, bkops_pm_notifier
	add	x0, x0, :lo12:bkops_pm_notifier
	bl	unregister_pm_notifier
	.loc	5 689 20                // kernel/block/mas_bkops_core.c:689:20
	ldr	x0, [x19, :lo12:bkops_workqueue_g]
	.loc	5 689 2 is_stmt 0       // kernel/block/mas_bkops_core.c:689:2
	bl	destroy_workqueue
	.loc	5 690 20 is_stmt 1      // kernel/block/mas_bkops_core.c:690:20
	str	xzr, [x19, :lo12:bkops_workqueue_g]
	b	.LBB10_19
.Ltmp219:
.LBB10_15:
	//DEBUG_VALUE: mas_bkops_enable:pdir <- $x22
	//DEBUG_VALUE: mas_bkops_enable:bkops <- $x19
	//DEBUG_VALUE: mas_bkops_enable:q <- $x21
	.loc	5 823 3                 // kernel/block/mas_bkops_core.c:823:3
	adrp	x0, .L.str.10
	add	x0, x0, :lo12:.L.str.10
.Ltmp220:
	.loc	5 0 0 is_stmt 0         // kernel/block/mas_bkops_core.c:0:0
	bl	printk
	b	.LBB10_19
.Ltmp221:
.LBB10_16:
	//DEBUG_VALUE: mas_bkops_enable:event_node <- $x23
	//DEBUG_VALUE: mas_bkops_enable:blk_lld <- $x20
	//DEBUG_VALUE: mas_bkops_enable:pdir <- $x22
	//DEBUG_VALUE: mas_bkops_enable:bkops <- $x19
	//DEBUG_VALUE: mas_bkops_enable:q <- $x21
	//DEBUG_VALUE: mas_bkops_manual_gc_proc_init:bkops <- $x19
	//DEBUG_VALUE: mas_bkops_manual_gc_proc_init:dir <- 0
	.loc	5 789 8 is_stmt 1       // kernel/block/mas_bkops_core.c:789:8
	adrp	x0, .L.str.16
	add	x0, x0, :lo12:.L.str.16
	mov	x1, xzr
	bl	proc_mkdir
	.loc	5 790 6                 // kernel/block/mas_bkops_core.c:790:6
	cbz	x0, .LBB10_21
.Ltmp222:
// %bb.17:
	//DEBUG_VALUE: mas_bkops_manual_gc_proc_init:bkops <- $x19
	//DEBUG_VALUE: mas_bkops_enable:event_node <- $x23
	//DEBUG_VALUE: mas_bkops_enable:blk_lld <- $x20
	//DEBUG_VALUE: mas_bkops_enable:pdir <- $x22
	//DEBUG_VALUE: mas_bkops_enable:bkops <- $x19
	//DEBUG_VALUE: mas_bkops_enable:q <- $x21
	.loc	5 0 0 is_stmt 0         // kernel/block/mas_bkops_core.c:0:0
	mov	x20, x0
.Ltmp223:
	//DEBUG_VALUE: mas_bkops_manual_gc_proc_init:dir <- $x20
	.loc	5 795 2 is_stmt 1       // kernel/block/mas_bkops_core.c:795:2
	adrp	x0, .L.str.18
	adrp	x3, mas_bkops_manual_gc_fops
	add	x0, x0, :lo12:.L.str.18
	add	x3, x3, :lo12:mas_bkops_manual_gc_fops
	mov	w1, #432
	mov	x2, x20
	bl	proc_create
	.loc	5 796 2                 // kernel/block/mas_bkops_core.c:796:2
	adrp	x0, .L.str.19
	adrp	x3, mas_bkops_status_fops
	add	x0, x0, :lo12:.L.str.19
	add	x3, x3, :lo12:mas_bkops_status_fops
	mov	w1, #288
	mov	x2, x20
	mov	x4, x19
	bl	proc_create_data
.Ltmp224:
	.loc	5 0 0 is_stmt 0         // kernel/block/mas_bkops_core.c:0:0
	mov	w0, wzr
	b	.LBB10_20
.Ltmp225:
.LBB10_18:
	//DEBUG_VALUE: mas_bkops_enable:blk_lld <- $x20
	//DEBUG_VALUE: mas_bkops_enable:pdir <- $x22
	//DEBUG_VALUE: mas_bkops_enable:bkops <- $x19
	//DEBUG_VALUE: mas_bkops_enable:q <- $x21
	.loc	5 828 3 is_stmt 1       // kernel/block/mas_bkops_core.c:828:3
	adrp	x0, .L.str.11
	adrp	x1, .L__func__.mas_bkops_enable
	add	x0, x0, :lo12:.L.str.11
	add	x1, x1, :lo12:.L__func__.mas_bkops_enable
	mov	w2, #829
	bl	printk
.Ltmp226:
.LBB10_19:
	//DEBUG_VALUE: mas_bkops_enable:pdir <- $x22
	//DEBUG_VALUE: mas_bkops_enable:q <- $x21
	.loc	5 0 3 is_stmt 0         // kernel/block/mas_bkops_core.c:0:3
	mov	w0, #-22
.Ltmp227:
.LBB10_20:
	//DEBUG_VALUE: mas_bkops_enable:q <- $x21
	.loc	5 852 1 is_stmt 1       // kernel/block/mas_bkops_core.c:852:1
	ldp	x29, x30, [sp, #48]     // 16-byte Folded Reload
	ldp	x20, x19, [sp, #32]     // 16-byte Folded Reload
	ldp	x22, x21, [sp, #16]     // 16-byte Folded Reload
.Ltmp228:
	ldp	x24, x23, [sp], #64     // 16-byte Folded Reload
	ret
.LBB10_21:
.Ltmp229:
	//DEBUG_VALUE: mas_bkops_manual_gc_proc_init:bkops <- $x19
	//DEBUG_VALUE: mas_bkops_enable:event_node <- $x23
	//DEBUG_VALUE: mas_bkops_enable:blk_lld <- $x20
	//DEBUG_VALUE: mas_bkops_enable:pdir <- $x22
	//DEBUG_VALUE: mas_bkops_enable:bkops <- $x19
	//DEBUG_VALUE: mas_bkops_enable:q <- $x21
	.loc	5 791 3                 // kernel/block/mas_bkops_core.c:791:3
	adrp	x0, .L.str.17
	adrp	x1, .L__func__.mas_bkops_manual_gc_proc_init
	add	x0, x0, :lo12:.L.str.17
	add	x1, x1, :lo12:.L__func__.mas_bkops_manual_gc_proc_init
	mov	w2, #791
	bl	printk
.Ltmp230:
	.loc	5 0 0 is_stmt 0         // kernel/block/mas_bkops_core.c:0:0
	mov	w0, wzr
	b	.LBB10_20
.Ltmp231:
.LBB10_22:
	//DEBUG_VALUE: mas_bkops_enable:pdir <- $x22
	//DEBUG_VALUE: mas_bkops_enable:bkops <- $x19
	//DEBUG_VALUE: mas_bkops_enable:q <- $x21
	.loc	5 812 3 is_stmt 1       // kernel/block/mas_bkops_core.c:812:3
	adrp	x0, .L.str.8
	add	x0, x0, :lo12:.L.str.8
.Ltmp232:
	.loc	5 0 0 is_stmt 0         // kernel/block/mas_bkops_core.c:0:0
	bl	printk
	b	.LBB10_19
.Ltmp233:
.Lfunc_end10:
	.size	mas_bkops_enable, .Lfunc_end10-mas_bkops_enable
	.cfi_endproc
                                        // -- End function
	.type	.L.str,@object          // @.str
	.section	.rodata.str1.1,"aMS",@progbits,1
.L.str:
	.asciz	"\0013[BKOPS]mas_bkops_query failed!\n"
	.size	.L.str, 34

	.type	.L.str.1,@object        // @.str.1
.L.str.1:
	.asciz	"\0013[BKOPS]mas_bkops_start failed!\n"
	.size	.L.str.1, 34

	.type	bkops_workqueue_g,@object // @bkops_workqueue_g
	.section	.bss.bkops_workqueue_g,"aw",@nobits
	.p2align	3
bkops_workqueue_g:
	.xword	0
	.size	bkops_workqueue_g, 8

	.type	bkops_io_busyidle_notify_handler._rs,@object // @bkops_io_busyidle_notify_handler._rs
	.section	.data.bkops_io_busyidle_notify_handler._rs,"aw",@progbits
	.p2align	3
bkops_io_busyidle_notify_handler._rs:
	.zero	4
	.word	3735899821              // 0xdead4ead
	.word	4294967295              // 0xffffffff
	.zero	4
	.xword	-1
	.word	1250                    // 0x4e2
	.word	10                      // 0xa
	.word	0                       // 0x0
	.word	0                       // 0x0
	.xword	0                       // 0x0
	.xword	0                       // 0x0
	.size	bkops_io_busyidle_notify_handler._rs, 56

	.type	.L__func__.bkops_io_busyidle_notify_handler,@object // @__func__.bkops_io_busyidle_notify_handler
	.section	.rodata.str1.1,"aMS",@progbits,1
.L__func__.bkops_io_busyidle_notify_handler:
	.asciz	"bkops_io_busyidle_notify_handler"
	.size	.L__func__.bkops_io_busyidle_notify_handler, 33

	.type	.L.str.2,@object        // @.str.2
.L.str.2:
	.asciz	"\0013[BKOPS]%s unknown state: %d\n"
	.size	.L.str.2, 31

	.type	.L.str.3,@object        // @.str.3
.L.str.3:
	.asciz	"\0013[BKOPS]Failed to alloc bkops_func\n"
	.size	.L.str.3, 37

	.type	.L.str.4,@object        // @.str.4
.L.str.4:
	.asciz	"%d\n"
	.size	.L.str.4, 4

	.type	user_manual_gc,@object  // @user_manual_gc
	.section	.bss.user_manual_gc,"aw",@nobits
	.p2align	2
user_manual_gc:
	.byte	0                       // 0x0
	.size	user_manual_gc, 1

	.type	.L.str.5,@object        // @.str.5
	.section	.rodata.str1.1,"aMS",@progbits,1
.L.str.5:
	.asciz	"\0013[BKOPS]%s %d: input error.\n"
	.size	.L.str.5, 30

	.type	.L__func__.mas_bkops_manual_gc_proc_write,@object // @__func__.mas_bkops_manual_gc_proc_write
.L__func__.mas_bkops_manual_gc_proc_write:
	.asciz	"mas_bkops_manual_gc_proc_write"
	.size	.L__func__.mas_bkops_manual_gc_proc_write, 31

	.type	.L.str.6,@object        // @.str.6
.L.str.6:
	.asciz	"\0013[BKOPS]%s: mas_bkops_query failed, ret = %d!\n"
	.size	.L.str.6, 48

	.type	.L__func__.mas_bkops_status_proc_show,@object // @__func__.mas_bkops_status_proc_show
.L__func__.mas_bkops_status_proc_show:
	.asciz	"mas_bkops_status_proc_show"
	.size	.L__func__.mas_bkops_status_proc_show, 27

	.type	.L.str.7,@object        // @.str.7
.L.str.7:
	.asciz	"%u\n"
	.size	.L.str.7, 4

	.type	.L.str.8,@object        // @.str.8
.L.str.8:
	.asciz	"\0013[BKOPS]Busy Idle was not enabled!\n"
	.size	.L.str.8, 37

	.type	.L.str.9,@object        // @.str.9
.L.str.9:
	.asciz	"\0013[BKOPS]bkops dev type not specified!\n"
	.size	.L.str.9, 40

	.type	.L.str.10,@object       // @.str.10
.L.str.10:
	.asciz	"\0013[BKOPS]bkops_ops is NULL!\n"
	.size	.L.str.10, 29

	.type	.L.str.11,@object       // @.str.11
.L.str.11:
	.asciz	"\0013[BKOPS]%s %d mas_bkops_init failed!\n"
	.size	.L.str.11, 39

	.type	.L__func__.mas_bkops_enable,@object // @__func__.mas_bkops_enable
.L__func__.mas_bkops_enable:
	.asciz	"mas_bkops_enable"
	.size	.L__func__.mas_bkops_enable, 17

	.type	.L.str.12,@object       // @.str.12
.L.str.12:
	.asciz	"\0013[BKOPS]Failed to create mmc bkops debugfs!\n"
	.size	.L.str.12, 46

	.type	.L.str.13,@object       // @.str.13
.L.str.13:
	.asciz	"mas_bkops"
	.size	.L.str.13, 10

	.type	bkops_lock,@object      // @bkops_lock
	.section	.data.bkops_lock,"aw",@progbits
	.p2align	3
bkops_lock:
	.zero	8
	.zero	4
	.word	3735899821              // 0xdead4ead
	.word	4294967295              // 0xffffffff
	.zero	4
	.xword	-1
	.zero	4
	.zero	4
	.xword	bkops_lock+40
	.xword	bkops_lock+40
	.xword	0
	.size	bkops_lock, 64

	.type	bkops_enabled,@object   // @bkops_enabled
	.section	.bss.bkops_enabled,"aw",@nobits
bkops_enabled:
	.byte	0                       // 0x0
	.size	bkops_enabled, 1

	.type	mas_bkops_inited,@object // @mas_bkops_inited
	.section	.bss.mas_bkops_inited,"aw",@nobits
	.p2align	2
mas_bkops_inited:
	.byte	0                       // 0x0
	.size	mas_bkops_inited, 1

	.type	.L.str.15,@object       // @.str.15
	.section	.rodata.str1.1,"aMS",@progbits,1
.L.str.15:
	.asciz	"bkops_workqueue"
	.size	.L.str.15, 16

	.type	bkops_pm_notifier,@object // @bkops_pm_notifier
	.section	.data.bkops_pm_notifier,"aw",@progbits
	.p2align	3
bkops_pm_notifier:
	.xword	__cfi_bkops_pm_callback
	.xword	0
	.word	0                       // 0x0
	.zero	4
	.size	bkops_pm_notifier, 24

	.type	bkops_reboot_notifier,@object // @bkops_reboot_notifier
	.section	.data.bkops_reboot_notifier,"aw",@progbits
	.p2align	3
bkops_reboot_notifier:
	.xword	__cfi_bkops_notify_reboot
	.xword	0
	.word	2147483647              // 0x7fffffff
	.zero	4
	.size	bkops_reboot_notifier, 24

	.type	.L.str.16,@object       // @.str.16
	.section	.rodata.str1.1,"aMS",@progbits,1
.L.str.16:
	.asciz	"block"
	.size	.L.str.16, 6

	.type	.L.str.17,@object       // @.str.17
.L.str.17:
	.asciz	"\0013[BKOPS]%s %d: proc mk error.\n"
	.size	.L.str.17, 32

	.type	.L__func__.mas_bkops_manual_gc_proc_init,@object // @__func__.mas_bkops_manual_gc_proc_init
.L__func__.mas_bkops_manual_gc_proc_init:
	.asciz	"mas_bkops_manual_gc_proc_init"
	.size	.L__func__.mas_bkops_manual_gc_proc_init, 30

	.type	.L.str.18,@object       // @.str.18
.L.str.18:
	.asciz	"manual_gc"
	.size	.L.str.18, 10

	.type	mas_bkops_manual_gc_fops,@object // @mas_bkops_manual_gc_fops
	.section	.rodata.mas_bkops_manual_gc_fops,"a",@progbits
	.p2align	3
mas_bkops_manual_gc_fops:
	.xword	0
	.xword	seq_lseek
	.xword	seq_read
	.xword	__cfi_mas_bkops_manual_gc_proc_write
	.xword	0
	.xword	0
	.xword	0
	.xword	0
	.xword	0
	.xword	0
	.xword	0
	.xword	0
	.xword	__cfi_mas_bkops_manual_gc_proc_open
	.xword	0
	.xword	single_release
	.xword	0
	.xword	0
	.xword	0
	.xword	0
	.xword	0
	.xword	0
	.xword	0
	.xword	0
	.xword	0
	.xword	0
	.xword	0
	.xword	0
	.xword	0
	.xword	0
	.xword	0
	.size	mas_bkops_manual_gc_fops, 240

	.type	.L.str.19,@object       // @.str.19
	.section	.rodata.str1.1,"aMS",@progbits,1
.L.str.19:
	.asciz	"status"
	.size	.L.str.19, 7

	.type	mas_bkops_status_fops,@object // @mas_bkops_status_fops
	.section	.rodata.mas_bkops_status_fops,"a",@progbits
	.p2align	3
mas_bkops_status_fops:
	.xword	0
	.xword	seq_lseek
	.xword	seq_read
	.xword	0
	.xword	0
	.xword	0
	.xword	0
	.xword	0
	.xword	0
	.xword	0
	.xword	0
	.xword	0
	.xword	__cfi_mas_bkops_status_proc_open
	.xword	0
	.xword	single_release
	.xword	0
	.xword	0
	.xword	0
	.xword	0
	.xword	0
	.xword	0
	.xword	0
	.xword	0
	.xword	0
	.xword	0
	.xword	0
	.xword	0
	.xword	0
	.xword	0
	.xword	0
	.size	mas_bkops_status_fops, 240
